---
triple:          'arm64-apple-darwin'
binary-path:     '/Users/tsangcuteso1/Beginning/begin/C++/project/output/TicTacToe(uncompletely)'
relocations:
  - { offsetInCU: 0x3F, offset: 0x3F, size: 0x8, addend: 0x0, symName: _c, symObjAddr: 0x45650, symBinAddr: 0x100010000, symSize: 0x0 }
  - { offsetInCU: 0x74, offset: 0x74, size: 0x8, addend: 0x0, symName: _R, symObjAddr: 0x4565C, symBinAddr: 0x10001000C, symSize: 0x0 }
  - { offsetInCU: 0x90, offset: 0x90, size: 0x8, addend: 0x0, symName: _C, symObjAddr: 0x45660, symBinAddr: 0x100010010, symSize: 0x0 }
  - { offsetInCU: 0xAA, offset: 0xAA, size: 0x8, addend: 0x0, symName: _turn, symObjAddr: 0x45668, symBinAddr: 0x100010018, symSize: 0x0 }
  - { offsetInCU: 0x3E60, offset: 0x3E60, size: 0x8, addend: 0x0, symName: __ZNSt3__124__put_character_sequenceB7v160006IcNS_11char_traitsIcEEEERNS_13basic_ostreamIT_T0_EES7_PKS4_m, symObjAddr: 0x2440, symBinAddr: 0x100006408, symSize: 0x1F4 }
  - { offsetInCU: 0x7C68, offset: 0x7C68, size: 0x8, addend: 0x0, symName: __ZNSt3__1lsB7v160006INS_11char_traitsIcEEEERNS_13basic_ostreamIcT_EES6_PKc, symObjAddr: 0x434, symBinAddr: 0x1000043FC, symSize: 0x48 }
  - { offsetInCU: 0x7CAE, offset: 0x7CAE, size: 0x8, addend: 0x0, symName: __ZNSt3__14endlB7v160006IcNS_11char_traitsIcEEEERNS_13basic_ostreamIT_T0_EES7_, symObjAddr: 0x4A8, symBinAddr: 0x100004470, symSize: 0x58 }
  - { offsetInCU: 0x7CEE, offset: 0x7CEE, size: 0x8, addend: 0x0, symName: __ZNSt3__1lsB7v160006IcNS_11char_traitsIcEENS_9allocatorIcEEEERNS_13basic_ostreamIT_T0_EES9_RKNS_12basic_stringIS6_S7_T1_EE, symObjAddr: 0x500, symBinAddr: 0x1000044C8, symSize: 0x4C }
  - { offsetInCU: 0x7D46, offset: 0x7D46, size: 0x8, addend: 0x0, symName: __ZNSt3__1eqB7v160006IcNS_11char_traitsIcEENS_9allocatorIcEEEEbRKNS_12basic_stringIT_T0_T1_EEPKS6_, symObjAddr: 0x1AA8, symBinAddr: 0x100005A70, symSize: 0xC0 }
  - { offsetInCU: 0x7DAD, offset: 0x7DAD, size: 0x8, addend: 0x0, symName: __ZNSt3__1neB7v160006IcNS_11char_traitsIcEENS_9allocatorIcEEEEbRKNS_12basic_stringIT_T0_T1_EEPKS6_, symObjAddr: 0x1F54, symBinAddr: 0x100005F1C, symSize: 0x34 }
  - { offsetInCU: 0x7E05, offset: 0x7E05, size: 0x8, addend: 0x0, symName: __ZNSt3__119__debug_db_insert_cB7v160006INS_12basic_stringIcNS_11char_traitsIcEENS_9allocatorIcEEEEEEvPT_, symObjAddr: 0x2350, symBinAddr: 0x100006318, symSize: 0x10 }
  - { offsetInCU: 0x7E36, offset: 0x7E36, size: 0x8, addend: 0x0, symName: __ZNSt3__118__constexpr_strlenB7v160006EPKc, symObjAddr: 0x241C, symBinAddr: 0x1000063E4, symSize: 0x24 }
  - { offsetInCU: 0x7E62, offset: 0x7E62, size: 0x8, addend: 0x0, symName: __ZNSt3__116__pad_and_outputB7v160006IcNS_11char_traitsIcEEEENS_19ostreambuf_iteratorIT_T0_EES6_PKS4_S8_S8_RNS_8ios_baseES4_, symObjAddr: 0x2650, symBinAddr: 0x100006618, symSize: 0x248 }
  - { offsetInCU: 0x7F31, offset: 0x7F31, size: 0x8, addend: 0x0, symName: __ZNSt3__112__to_addressB7v160006IKcEEPT_S3_, symObjAddr: 0x2AD0, symBinAddr: 0x100006A98, symSize: 0x14 }
  - { offsetInCU: 0x7F66, offset: 0x7F66, size: 0x8, addend: 0x0, symName: __ZNSt3__130__libcpp_is_constant_evaluatedB7v160006Ev, symObjAddr: 0x2BFC, symBinAddr: 0x100006BC4, symSize: 0xC }
  - { offsetInCU: 0x7FB6, offset: 0x7FB6, size: 0x8, addend: 0x0, symName: __ZNSt3__19use_facetB7v160006INS_5ctypeIcEEEERKT_RKNS_6localeE, symObjAddr: 0x2DB4, symBinAddr: 0x100006D7C, symSize: 0x2C }
  - { offsetInCU: 0x8485, offset: 0x8485, size: 0x8, addend: 0x0, symName: __ZNSt3__122__make_exception_guardB7v160006INS_6vectorINS1_INS_12basic_stringIcNS_11char_traitsIcEENS_9allocatorIcEEEENS5_IS7_EEEENS5_IS9_EEE16__destroy_vectorEEENS_28__exception_guard_exceptionsIT_EESE_, symObjAddr: 0x308C, symBinAddr: 0x100007054, symSize: 0x40 }
  - { offsetInCU: 0x84BA, offset: 0x84BA, size: 0x8, addend: 0x0, symName: __ZNSt3__119__debug_db_insert_cB7v160006INS_6vectorINS1_INS_12basic_stringIcNS_11char_traitsIcEENS_9allocatorIcEEEENS5_IS7_EEEENS5_IS9_EEEEEEvPT_, symObjAddr: 0x3100, symBinAddr: 0x1000070C8, symSize: 0x10 }
  - { offsetInCU: 0x84EB, offset: 0x84EB, size: 0x8, addend: 0x0, symName: __ZNSt3__119__allocate_at_leastB7v160006INS_9allocatorINS_6vectorINS_12basic_stringIcNS_11char_traitsIcEENS1_IcEEEENS1_IS7_EEEEEEEENS_19__allocation_resultINS_16allocator_traitsIT_E7pointerEEERSD_m, symObjAddr: 0x3480, symBinAddr: 0x100007448, symSize: 0x40 }
  - { offsetInCU: 0x852E, offset: 0x852E, size: 0x8, addend: 0x0, symName: __ZNSt3__13minB7v160006ImEERKT_S3_S3_, symObjAddr: 0x35D8, symBinAddr: 0x1000075A0, symSize: 0x2C }
  - { offsetInCU: 0x8772, offset: 0x8772, size: 0x8, addend: 0x0, symName: __ZNSt3__13minB7v160006ImNS_6__lessImmEEEERKT_S5_S5_T0_, symObjAddr: 0x363C, symBinAddr: 0x100007604, symSize: 0x54 }
  - { offsetInCU: 0x8807, offset: 0x8807, size: 0x8, addend: 0x0, symName: __ZNSt3__120__throw_length_errorB7v160006EPKc, symObjAddr: 0x36E4, symBinAddr: 0x1000076AC, symSize: 0x64 }
  - { offsetInCU: 0x882F, offset: 0x882F, size: 0x8, addend: 0x0, symName: __ZNSt3__117__libcpp_allocateB7v160006Emm, symObjAddr: 0x3888, symBinAddr: 0x100007850, symSize: 0x28 }
  - { offsetInCU: 0x886C, offset: 0x886C, size: 0x8, addend: 0x0, symName: __ZNSt3__121__libcpp_operator_newB7v160006IJmEEEPvDpT_, symObjAddr: 0x38B0, symBinAddr: 0x100007878, symSize: 0x24 }
  - { offsetInCU: 0x88A5, offset: 0x88A5, size: 0x8, addend: 0x0, symName: __ZNSt3__112__to_addressB7v160006INS_6vectorINS_12basic_stringIcNS_11char_traitsIcEENS_9allocatorIcEEEENS5_IS7_EEEEEEPT_SB_, symObjAddr: 0x39CC, symBinAddr: 0x100007994, symSize: 0x14 }
  - { offsetInCU: 0x88DA, offset: 0x88DA, size: 0x8, addend: 0x0, symName: __ZNSt3__130__uninitialized_allocator_copyB7v160006INS_9allocatorINS_6vectorINS_12basic_stringIcNS_11char_traitsIcEENS1_IcEEEENS1_IS7_EEEEEEPS9_SB_SB_EET2_RT_T0_T1_SC_, symObjAddr: 0x3A7C, symBinAddr: 0x100007A44, symSize: 0xFC }
  - { offsetInCU: 0x8978, offset: 0x8978, size: 0x8, addend: 0x0, symName: __ZNSt3__122__make_exception_guardB7v160006INS_29_AllocatorDestroyRangeReverseINS_9allocatorINS_6vectorINS_12basic_stringIcNS_11char_traitsIcEENS2_IcEEEENS2_IS8_EEEEEEPSA_EEEENS_28__exception_guard_exceptionsIT_EESF_, symObjAddr: 0x3BF0, symBinAddr: 0x100007BB8, symSize: 0x4C }
  - { offsetInCU: 0x89AE, offset: 0x89AE, size: 0x8, addend: 0x0, symName: __ZNSt3__122__make_exception_guardB7v160006INS_6vectorINS_12basic_stringIcNS_11char_traitsIcEENS_9allocatorIcEEEENS5_IS7_EEE16__destroy_vectorEEENS_28__exception_guard_exceptionsIT_EESC_, symObjAddr: 0x3F8C, symBinAddr: 0x100007F54, symSize: 0x40 }
  - { offsetInCU: 0x89E3, offset: 0x89E3, size: 0x8, addend: 0x0, symName: __ZNSt3__119__debug_db_insert_cB7v160006INS_6vectorINS_12basic_stringIcNS_11char_traitsIcEENS_9allocatorIcEEEENS5_IS7_EEEEEEvPT_, symObjAddr: 0x4000, symBinAddr: 0x100007FC8, symSize: 0x10 }
  - { offsetInCU: 0x8A14, offset: 0x8A14, size: 0x8, addend: 0x0, symName: __ZNSt3__119__allocate_at_leastB7v160006INS_9allocatorINS_12basic_stringIcNS_11char_traitsIcEENS1_IcEEEEEEEENS_19__allocation_resultINS_16allocator_traitsIT_E7pointerEEERSA_m, symObjAddr: 0x4380, symBinAddr: 0x100008348, symSize: 0x40 }
  - { offsetInCU: 0x8A57, offset: 0x8A57, size: 0x8, addend: 0x0, symName: __ZNSt3__112__to_addressB7v160006INS_12basic_stringIcNS_11char_traitsIcEENS_9allocatorIcEEEEEEPT_S8_, symObjAddr: 0x4698, symBinAddr: 0x100008660, symSize: 0x14 }
  - { offsetInCU: 0x8A8C, offset: 0x8A8C, size: 0x8, addend: 0x0, symName: __ZNSt3__130__uninitialized_allocator_copyB7v160006INS_9allocatorINS_12basic_stringIcNS_11char_traitsIcEENS1_IcEEEEEEPS6_S8_S8_EET2_RT_T0_T1_S9_, symObjAddr: 0x4748, symBinAddr: 0x100008710, symSize: 0xFC }
  - { offsetInCU: 0x8B2A, offset: 0x8B2A, size: 0x8, addend: 0x0, symName: __ZNSt3__122__make_exception_guardB7v160006INS_29_AllocatorDestroyRangeReverseINS_9allocatorINS_12basic_stringIcNS_11char_traitsIcEENS2_IcEEEEEEPS7_EEEENS_28__exception_guard_exceptionsIT_EESC_, symObjAddr: 0x48BC, symBinAddr: 0x100008884, symSize: 0x4C }
  - { offsetInCU: 0x8B60, offset: 0x8B60, size: 0x8, addend: 0x0, symName: __ZNSt3__119__allocator_destroyB7v160006INS_9allocatorINS_12basic_stringIcNS_11char_traitsIcEENS1_IcEEEEEENS_16reverse_iteratorIPS6_EESA_EEvRT_T0_T1_, symObjAddr: 0x4B44, symBinAddr: 0x100008B0C, symSize: 0x70 }
  - { offsetInCU: 0x8BC3, offset: 0x8BC3, size: 0x8, addend: 0x0, symName: __ZNSt3__1neB7v160006IPNS_12basic_stringIcNS_11char_traitsIcEENS_9allocatorIcEEEES7_EEbRKNS_16reverse_iteratorIT_EERKNS8_IT0_EE, symObjAddr: 0x4BE8, symBinAddr: 0x100008BB0, symSize: 0x48 }
  - { offsetInCU: 0x8C0F, offset: 0x8C0F, size: 0x8, addend: 0x0, symName: __ZNSt3__112__to_addressB7v160006INS_16reverse_iteratorIPNS_12basic_stringIcNS_11char_traitsIcEENS_9allocatorIcEEEEEEvEENS_5decayIDTclsr19__to_address_helperIT_EE6__callclsr3stdE7declvalIRKSB_EEEEE4typeESD_, symObjAddr: 0x4C5C, symBinAddr: 0x100008C24, symSize: 0x24 }
  - { offsetInCU: 0x8C6E, offset: 0x8C6E, size: 0x8, addend: 0x0, symName: __ZNSt3__118__debug_db_erase_cB7v160006INS_6vectorINS_12basic_stringIcNS_11char_traitsIcEENS_9allocatorIcEEEENS5_IS7_EEEEEEvPT_, symObjAddr: 0x4F78, symBinAddr: 0x100008F40, symSize: 0x10 }
  - { offsetInCU: 0x8C9F, offset: 0x8C9F, size: 0x8, addend: 0x0, symName: __ZNSt3__119__libcpp_deallocateB7v160006EPvmm, symObjAddr: 0x50F8, symBinAddr: 0x1000090C0, symSize: 0x30 }
  - { offsetInCU: 0x8CE7, offset: 0x8CE7, size: 0x8, addend: 0x0, symName: __ZNSt3__127__do_deallocate_handle_sizeB7v160006IJEEEvPvmDpT_, symObjAddr: 0x5128, symBinAddr: 0x1000090F0, symSize: 0x28 }
  - { offsetInCU: 0x8D25, offset: 0x8D25, size: 0x8, addend: 0x0, symName: __ZNSt3__124__libcpp_operator_deleteB7v160006IJPvEEEvDpT_, symObjAddr: 0x5150, symBinAddr: 0x100009118, symSize: 0x24 }
  - { offsetInCU: 0x8D5A, offset: 0x8D5A, size: 0x8, addend: 0x0, symName: __ZNSt3__119__allocator_destroyB7v160006INS_9allocatorINS_6vectorINS_12basic_stringIcNS_11char_traitsIcEENS1_IcEEEENS1_IS7_EEEEEENS_16reverse_iteratorIPS9_EESD_EEvRT_T0_T1_, symObjAddr: 0x5224, symBinAddr: 0x1000091EC, symSize: 0x70 }
  - { offsetInCU: 0x8DBD, offset: 0x8DBD, size: 0x8, addend: 0x0, symName: __ZNSt3__1neB7v160006IPNS_6vectorINS_12basic_stringIcNS_11char_traitsIcEENS_9allocatorIcEEEENS5_IS7_EEEESA_EEbRKNS_16reverse_iteratorIT_EERKNSB_IT0_EE, symObjAddr: 0x52C8, symBinAddr: 0x100009290, symSize: 0x48 }
  - { offsetInCU: 0x8E09, offset: 0x8E09, size: 0x8, addend: 0x0, symName: __ZNSt3__112__to_addressB7v160006INS_16reverse_iteratorIPNS_6vectorINS_12basic_stringIcNS_11char_traitsIcEENS_9allocatorIcEEEENS6_IS8_EEEEEEvEENS_5decayIDTclsr19__to_address_helperIT_EE6__callclsr3stdE7declvalIRKSE_EEEEE4typeESG_, symObjAddr: 0x533C, symBinAddr: 0x100009304, symSize: 0x24 }
  - { offsetInCU: 0x8E68, offset: 0x8E68, size: 0x8, addend: 0x0, symName: __ZNSt3__118__debug_db_erase_cB7v160006INS_6vectorINS1_INS_12basic_stringIcNS_11char_traitsIcEENS_9allocatorIcEEEENS5_IS7_EEEENS5_IS9_EEEEEEvPT_, symObjAddr: 0x5658, symBinAddr: 0x100009620, symSize: 0x10 }
  - { offsetInCU: 0x8E99, offset: 0x8E99, size: 0x8, addend: 0x0, symName: __ZNSt3__13maxB7v160006ImEERKT_S3_S3_, symObjAddr: 0x669C, symBinAddr: 0x10000A664, symSize: 0x2C }
  - { offsetInCU: 0x8EDC, offset: 0x8EDC, size: 0x8, addend: 0x0, symName: __ZNSt3__13maxB7v160006ImNS_6__lessImmEEEERKT_S5_S5_T0_, symObjAddr: 0x66C8, symBinAddr: 0x10000A690, symSize: 0x54 }
  - { offsetInCU: 0x8F36, offset: 0x8F36, size: 0x8, addend: 0x0, symName: __ZNSt3__142__uninitialized_allocator_move_if_noexceptB7v160006INS_9allocatorINS_6vectorINS_12basic_stringIcNS_11char_traitsIcEENS1_IcEEEENS1_IS7_EEEEEENS_16reverse_iteratorIPS9_EESD_SD_EET2_RT_T0_T1_SE_, symObjAddr: 0x6A28, symBinAddr: 0x10000A9F0, symSize: 0x124 }
  - { offsetInCU: 0x8FD6, offset: 0x8FD6, size: 0x8, addend: 0x0, symName: __ZNSt3__14swapB7v160006IPNS_6vectorINS_12basic_stringIcNS_11char_traitsIcEENS_9allocatorIcEEEENS5_IS7_EEEEEEvRT_SC_, symObjAddr: 0x6B4C, symBinAddr: 0x10000AB14, symSize: 0x3C }
  - { offsetInCU: 0x9027, offset: 0x9027, size: 0x8, addend: 0x0, symName: __ZNSt3__125__debug_db_invalidate_allB7v160006INS_6vectorINS1_INS_12basic_stringIcNS_11char_traitsIcEENS_9allocatorIcEEEENS5_IS7_EEEENS5_IS9_EEEEEEvPT_, symObjAddr: 0x6B88, symBinAddr: 0x10000AB50, symSize: 0x10 }
  - { offsetInCU: 0x9058, offset: 0x9058, size: 0x8, addend: 0x0, symName: __ZNSt3__122__make_exception_guardB7v160006INS_29_AllocatorDestroyRangeReverseINS_9allocatorINS_6vectorINS_12basic_stringIcNS_11char_traitsIcEENS2_IcEEEENS2_IS8_EEEEEENS_16reverse_iteratorIPSA_EEEEEENS_28__exception_guard_exceptionsIT_EESH_, symObjAddr: 0x6B98, symBinAddr: 0x10000AB60, symSize: 0x4C }
  - { offsetInCU: 0x908E, offset: 0x908E, size: 0x8, addend: 0x0, symName: __ZNSt3__119__allocator_destroyB7v160006INS_9allocatorINS_6vectorINS_12basic_stringIcNS_11char_traitsIcEENS1_IcEEEENS1_IS7_EEEEEENS_16reverse_iteratorINSB_IPS9_EEEESE_EEvRT_T0_T1_, symObjAddr: 0x6E08, symBinAddr: 0x10000ADD0, symSize: 0x70 }
  - { offsetInCU: 0x90F3, offset: 0x90F3, size: 0x8, addend: 0x0, symName: __ZNSt3__1neB7v160006INS_16reverse_iteratorIPNS_6vectorINS_12basic_stringIcNS_11char_traitsIcEENS_9allocatorIcEEEENS6_IS8_EEEEEESC_EEbRKNS1_IT_EERKNS1_IT0_EE, symObjAddr: 0x6EB4, symBinAddr: 0x10000AE7C, symSize: 0x60 }
  - { offsetInCU: 0x913F, offset: 0x913F, size: 0x8, addend: 0x0, symName: __ZNSt3__112__to_addressB7v160006INS_16reverse_iteratorINS1_IPNS_6vectorINS_12basic_stringIcNS_11char_traitsIcEENS_9allocatorIcEEEENS6_IS8_EEEEEEEEvEENS_5decayIDTclsr19__to_address_helperIT_EE6__callclsr3stdE7declvalIRKSF_EEEEE4typeESH_, symObjAddr: 0x6F14, symBinAddr: 0x10000AEDC, symSize: 0x24 }
  - { offsetInCU: 0x9376, offset: 0x9376, size: 0x8, addend: 0x0, symName: __ZSt28__throw_bad_array_new_lengthB7v160006v, symObjAddr: 0x3854, symBinAddr: 0x10000781C, symSize: 0x34 }
  - { offsetInCU: 0x9526, offset: 0x9526, size: 0x8, addend: 0x0, symName: _choice, symObjAddr: 0x45680, symBinAddr: 0x100010030, symSize: 0x0 }
  - { offsetInCU: 0x9542, offset: 0x9542, size: 0x8, addend: 0x0, symName: _check, symObjAddr: 0x45682, symBinAddr: 0x100010032, symSize: 0x0 }
  - { offsetInCU: 0x9AB2, offset: 0x9AB2, size: 0x8, addend: 0x0, symName: __ZNSt3__16vectorINS0_INS_12basic_stringIcNS_11char_traitsIcEENS_9allocatorIcEEEENS4_IS6_EEEENS4_IS8_EEE26__swap_out_circular_bufferERNS_14__split_bufferIS8_RS9_EE, symObjAddr: 0x64F4, symBinAddr: 0x10000A4BC, symSize: 0x118 }
  - { offsetInCU: 0xBC87, offset: 0xBC87, size: 0x8, addend: 0x0, symName: __ZNSt3__112basic_stringIcNS_11char_traitsIcEENS_9allocatorIcEEEC1B7v160006IDnEEPKc, symObjAddr: 0x0, symBinAddr: 0x100003FC8, symSize: 0x34 }
  - { offsetInCU: 0xBCC4, offset: 0xBCC4, size: 0x8, addend: 0x0, symName: __Z11updateBoardiiNSt3__16vectorINS0_INS_12basic_stringIcNS_11char_traitsIcEENS_9allocatorIcEEEENS4_IS6_EEEENS4_IS8_EEEERiiSB_, symObjAddr: 0x34, symBinAddr: 0x100003FFC, symSize: 0x400 }
  - { offsetInCU: 0xBDE2, offset: 0xBDE2, size: 0x8, addend: 0x0, symName: __ZNSt3__113basic_ostreamIcNS_11char_traitsIcEEElsB7v160006EPFRS3_S4_E, symObjAddr: 0x47C, symBinAddr: 0x100004444, symSize: 0x2C }
  - { offsetInCU: 0xBE15, offset: 0xBE15, size: 0x8, addend: 0x0, symName: __ZNSt3__16vectorINS0_INS_12basic_stringIcNS_11char_traitsIcEENS_9allocatorIcEEEENS4_IS6_EEEENS4_IS8_EEEixB7v160006Em, symObjAddr: 0x54C, symBinAddr: 0x100004514, symSize: 0x2C }
  - { offsetInCU: 0xBE4B, offset: 0xBE4B, size: 0x8, addend: 0x0, symName: __ZNSt3__16vectorINS_12basic_stringIcNS_11char_traitsIcEENS_9allocatorIcEEEENS4_IS6_EEEixB7v160006Em, symObjAddr: 0x578, symBinAddr: 0x100004540, symSize: 0x2C }
  - { offsetInCU: 0xBE81, offset: 0xBE81, size: 0x8, addend: 0x0, symName: __Z18createBoardElementiRNSt3__16vectorINS0_INS_12basic_stringIcNS_11char_traitsIcEENS_9allocatorIcEEEENS4_IS6_EEEENS4_IS8_EEEE, symObjAddr: 0x5A4, symBinAddr: 0x10000456C, symSize: 0xF4 }
  - { offsetInCU: 0xBEEE, offset: 0xBEEE, size: 0x8, addend: 0x0, symName: __Z12displayBoardiNSt3__16vectorINS0_INS_12basic_stringIcNS_11char_traitsIcEENS_9allocatorIcEEEENS4_IS6_EEEENS4_IS8_EEEE, symObjAddr: 0x6A4, symBinAddr: 0x10000466C, symSize: 0x15C }
  - { offsetInCU: 0xBF6A, offset: 0xBF6A, size: 0x8, addend: 0x0, symName: __ZNSt3__16vectorINS0_INS_12basic_stringIcNS_11char_traitsIcEENS_9allocatorIcEEEENS4_IS6_EEEENS4_IS8_EEEC1ERKSA_, symObjAddr: 0x800, symBinAddr: 0x1000047C8, symSize: 0x34 }
  - { offsetInCU: 0xBFA4, offset: 0xBFA4, size: 0x8, addend: 0x0, symName: __ZNSt3__16vectorINS0_INS_12basic_stringIcNS_11char_traitsIcEENS_9allocatorIcEEEENS4_IS6_EEEENS4_IS8_EEED1B7v160006Ev, symObjAddr: 0x834, symBinAddr: 0x1000047FC, symSize: 0x2C }
  - { offsetInCU: 0xBFCC, offset: 0xBFCC, size: 0x8, addend: 0x0, symName: __Z8checkWiniNSt3__16vectorINS0_INS_12basic_stringIcNS_11char_traitsIcEENS_9allocatorIcEEEENS4_IS6_EEEENS4_IS8_EEEE, symObjAddr: 0x860, symBinAddr: 0x100004828, symSize: 0x1248 }
  - { offsetInCU: 0xC0DC, offset: 0xC0DC, size: 0x8, addend: 0x0, symName: __Z10playerTurniNSt3__16vectorINS0_INS_12basic_stringIcNS_11char_traitsIcEENS_9allocatorIcEEEENS4_IS6_EEEENS4_IS8_EEEE, symObjAddr: 0x1B68, symBinAddr: 0x100005B30, symSize: 0x3EC }
  - { offsetInCU: 0xC118, offset: 0xC118, size: 0x8, addend: 0x0, symName: __ZNSt3__112basic_stringIcNS_11char_traitsIcEENS_9allocatorIcEEEaSB7v160006EPKc, symObjAddr: 0x1F88, symBinAddr: 0x100005F50, symSize: 0x2C }
  - { offsetInCU: 0xC14C, offset: 0xC14C, size: 0x8, addend: 0x0, symName: _main, symObjAddr: 0x1FB4, symBinAddr: 0x100005F7C, symSize: 0x188 }
  - { offsetInCU: 0xC186, offset: 0xC186, size: 0x8, addend: 0x0, symName: __ZNSt3__16vectorINS0_INS_12basic_stringIcNS_11char_traitsIcEENS_9allocatorIcEEEENS4_IS6_EEEENS4_IS8_EEEC1B7v160006Ev, symObjAddr: 0x213C, symBinAddr: 0x100006104, symSize: 0x2C }
  - { offsetInCU: 0xC1AE, offset: 0xC1AE, size: 0x8, addend: 0x0, symName: __ZNSt3__16vectorINS0_INS_12basic_stringIcNS_11char_traitsIcEENS_9allocatorIcEEEENS4_IS6_EEEENS4_IS8_EEE6resizeEmRKS8_, symObjAddr: 0x2168, symBinAddr: 0x100006130, symSize: 0xA4 }
  - { offsetInCU: 0xC202, offset: 0xC202, size: 0x8, addend: 0x0, symName: __ZNSt3__16vectorINS_12basic_stringIcNS_11char_traitsIcEENS_9allocatorIcEEEENS4_IS6_EEEC1Em, symObjAddr: 0x220C, symBinAddr: 0x1000061D4, symSize: 0x34 }
  - { offsetInCU: 0xC23C, offset: 0xC23C, size: 0x8, addend: 0x0, symName: __ZNSt3__16vectorINS_12basic_stringIcNS_11char_traitsIcEENS_9allocatorIcEEEENS4_IS6_EEED1B7v160006Ev, symObjAddr: 0x2240, symBinAddr: 0x100006208, symSize: 0x2C }
  - { offsetInCU: 0xC265, offset: 0xC265, size: 0x8, addend: 0x0, symName: __ZNSt3__112basic_stringIcNS_11char_traitsIcEENS_9allocatorIcEEEC2B7v160006IDnEEPKc, symObjAddr: 0x226C, symBinAddr: 0x100006234, symSize: 0x60 }
  - { offsetInCU: 0xC2A7, offset: 0xC2A7, size: 0x8, addend: 0x0, symName: __ZNSt3__117__compressed_pairINS_12basic_stringIcNS_11char_traitsIcEENS_9allocatorIcEEE5__repES5_EC1B7v160006INS_18__default_init_tagESA_EEOT_OT0_, symObjAddr: 0x22CC, symBinAddr: 0x100006294, symSize: 0x3C }
  - { offsetInCU: 0xC2FE, offset: 0xC2FE, size: 0x8, addend: 0x0, symName: __ZNSt3__111char_traitsIcE6lengthEPKc, symObjAddr: 0x2308, symBinAddr: 0x1000062D0, symSize: 0x48 }
  - { offsetInCU: 0xC321, offset: 0xC321, size: 0x8, addend: 0x0, symName: __ZNSt3__117__compressed_pairINS_12basic_stringIcNS_11char_traitsIcEENS_9allocatorIcEEE5__repES5_EC2B7v160006INS_18__default_init_tagESA_EEOT_OT0_, symObjAddr: 0x2360, symBinAddr: 0x100006328, symSize: 0x3C }
  - { offsetInCU: 0xC378, offset: 0xC378, size: 0x8, addend: 0x0, symName: __ZNSt3__122__compressed_pair_elemINS_12basic_stringIcNS_11char_traitsIcEENS_9allocatorIcEEE5__repELi0ELb0EEC2B7v160006ENS_18__default_init_tagE, symObjAddr: 0x239C, symBinAddr: 0x100006364, symSize: 0x14 }
  - { offsetInCU: 0xC3AC, offset: 0xC3AC, size: 0x8, addend: 0x0, symName: __ZNSt3__122__compressed_pair_elemINS_9allocatorIcEELi1ELb1EEC2B7v160006ENS_18__default_init_tagE, symObjAddr: 0x23B0, symBinAddr: 0x100006378, symSize: 0x2C }
  - { offsetInCU: 0xC3E0, offset: 0xC3E0, size: 0x8, addend: 0x0, symName: __ZNSt3__19allocatorIcEC2B7v160006Ev, symObjAddr: 0x23DC, symBinAddr: 0x1000063A4, symSize: 0x2C }
  - { offsetInCU: 0xC409, offset: 0xC409, size: 0x8, addend: 0x0, symName: __ZNSt3__116__non_trivial_ifILb1ENS_9allocatorIcEEEC2B7v160006Ev, symObjAddr: 0x2408, symBinAddr: 0x1000063D0, symSize: 0x14 }
  - { offsetInCU: 0xC450, offset: 0xC450, size: 0x8, addend: 0x0, symName: __ZNKSt3__113basic_ostreamIcNS_11char_traitsIcEEE6sentrycvbB7v160006Ev, symObjAddr: 0x2634, symBinAddr: 0x1000065FC, symSize: 0x1C }
  - { offsetInCU: 0xC475, offset: 0xC475, size: 0x8, addend: 0x0, symName: __ZNSt3__119ostreambuf_iteratorIcNS_11char_traitsIcEEEC1B7v160006ERNS_13basic_ostreamIcS2_EE, symObjAddr: 0x2898, symBinAddr: 0x100006860, symSize: 0x34 }
  - { offsetInCU: 0xC4AC, offset: 0xC4AC, size: 0x8, addend: 0x0, symName: __ZNKSt3__18ios_base5flagsB7v160006Ev, symObjAddr: 0x28CC, symBinAddr: 0x100006894, symSize: 0x18 }
  - { offsetInCU: 0xC4D2, offset: 0xC4D2, size: 0x8, addend: 0x0, symName: __ZNKSt3__19basic_iosIcNS_11char_traitsIcEEE4fillB7v160006Ev, symObjAddr: 0x28E4, symBinAddr: 0x1000068AC, symSize: 0x64 }
  - { offsetInCU: 0xC4F9, offset: 0xC4F9, size: 0x8, addend: 0x0, symName: __ZNKSt3__119ostreambuf_iteratorIcNS_11char_traitsIcEEE6failedB7v160006Ev, symObjAddr: 0x2948, symBinAddr: 0x100006910, symSize: 0x24 }
  - { offsetInCU: 0xC51E, offset: 0xC51E, size: 0x8, addend: 0x0, symName: __ZNSt3__19basic_iosIcNS_11char_traitsIcEEE8setstateB7v160006Ej, symObjAddr: 0x296C, symBinAddr: 0x100006934, symSize: 0x2C }
  - { offsetInCU: 0xC552, offset: 0xC552, size: 0x8, addend: 0x0, symName: __ZNKSt3__18ios_base5widthB7v160006Ev, symObjAddr: 0x2998, symBinAddr: 0x100006960, symSize: 0x18 }
  - { offsetInCU: 0xC579, offset: 0xC579, size: 0x8, addend: 0x0, symName: __ZNSt3__115basic_streambufIcNS_11char_traitsIcEEE5sputnB7v160006EPKcl, symObjAddr: 0x29B0, symBinAddr: 0x100006978, symSize: 0x3C }
  - { offsetInCU: 0xC5BA, offset: 0xC5BA, size: 0x8, addend: 0x0, symName: __ZNSt3__112basic_stringIcNS_11char_traitsIcEENS_9allocatorIcEEEC1B7v160006Emc, symObjAddr: 0x29EC, symBinAddr: 0x1000069B4, symSize: 0x3C }
  - { offsetInCU: 0xC601, offset: 0xC601, size: 0x8, addend: 0x0, symName: __ZNKSt3__112basic_stringIcNS_11char_traitsIcEENS_9allocatorIcEEE4dataB7v160006Ev, symObjAddr: 0x2A28, symBinAddr: 0x1000069F0, symSize: 0x28 }
  - { offsetInCU: 0xC626, offset: 0xC626, size: 0x8, addend: 0x0, symName: __ZNSt3__18ios_base5widthB7v160006El, symObjAddr: 0x2A50, symBinAddr: 0x100006A18, symSize: 0x2C }
  - { offsetInCU: 0xC66B, offset: 0xC66B, size: 0x8, addend: 0x0, symName: __ZNSt3__112basic_stringIcNS_11char_traitsIcEENS_9allocatorIcEEEC2B7v160006Emc, symObjAddr: 0x2A7C, symBinAddr: 0x100006A44, symSize: 0x54 }
  - { offsetInCU: 0xC6B2, offset: 0xC6B2, size: 0x8, addend: 0x0, symName: __ZNKSt3__112basic_stringIcNS_11char_traitsIcEENS_9allocatorIcEEE13__get_pointerB7v160006Ev, symObjAddr: 0x2AE4, symBinAddr: 0x100006AAC, symSize: 0x54 }
  - { offsetInCU: 0xC6D7, offset: 0xC6D7, size: 0x8, addend: 0x0, symName: __ZNKSt3__112basic_stringIcNS_11char_traitsIcEENS_9allocatorIcEEE9__is_longB7v160006Ev, symObjAddr: 0x2B38, symBinAddr: 0x100006B00, symSize: 0x74 }
  - { offsetInCU: 0xC6FC, offset: 0xC6FC, size: 0x8, addend: 0x0, symName: __ZNKSt3__112basic_stringIcNS_11char_traitsIcEENS_9allocatorIcEEE18__get_long_pointerB7v160006Ev, symObjAddr: 0x2BAC, symBinAddr: 0x100006B74, symSize: 0x28 }
  - { offsetInCU: 0xC721, offset: 0xC721, size: 0x8, addend: 0x0, symName: __ZNKSt3__112basic_stringIcNS_11char_traitsIcEENS_9allocatorIcEEE19__get_short_pointerB7v160006Ev, symObjAddr: 0x2BD4, symBinAddr: 0x100006B9C, symSize: 0x28 }
  - { offsetInCU: 0xC746, offset: 0xC746, size: 0x8, addend: 0x0, symName: __ZNKSt3__117__compressed_pairINS_12basic_stringIcNS_11char_traitsIcEENS_9allocatorIcEEE5__repES5_E5firstB7v160006Ev, symObjAddr: 0x2C08, symBinAddr: 0x100006BD0, symSize: 0x24 }
  - { offsetInCU: 0xC76B, offset: 0xC76B, size: 0x8, addend: 0x0, symName: __ZNKSt3__122__compressed_pair_elemINS_12basic_stringIcNS_11char_traitsIcEENS_9allocatorIcEEE5__repELi0ELb0EE5__getB7v160006Ev, symObjAddr: 0x2C2C, symBinAddr: 0x100006BF4, symSize: 0x14 }
  - { offsetInCU: 0xC790, offset: 0xC790, size: 0x8, addend: 0x0, symName: __ZNSt3__114pointer_traitsIPKcE10pointer_toB7v160006ERS1_, symObjAddr: 0x2C40, symBinAddr: 0x100006C08, symSize: 0x14 }
  - { offsetInCU: 0xC7B3, offset: 0xC7B3, size: 0x8, addend: 0x0, symName: __ZNSt3__119ostreambuf_iteratorIcNS_11char_traitsIcEEEC2B7v160006ERNS_13basic_ostreamIcS2_EE, symObjAddr: 0x2C54, symBinAddr: 0x100006C1C, symSize: 0x68 }
  - { offsetInCU: 0xC7E9, offset: 0xC7E9, size: 0x8, addend: 0x0, symName: __ZNKSt3__19basic_iosIcNS_11char_traitsIcEEE5rdbufB7v160006Ev, symObjAddr: 0x2CBC, symBinAddr: 0x100006C84, symSize: 0x24 }
  - { offsetInCU: 0xC810, offset: 0xC810, size: 0x8, addend: 0x0, symName: __ZNKSt3__18ios_base5rdbufB7v160006Ev, symObjAddr: 0x2CE0, symBinAddr: 0x100006CA8, symSize: 0x18 }
  - { offsetInCU: 0xC835, offset: 0xC835, size: 0x8, addend: 0x0, symName: __ZNSt3__111char_traitsIcE11eq_int_typeEii, symObjAddr: 0x2CF8, symBinAddr: 0x100006CC0, symSize: 0x28 }
  - { offsetInCU: 0xC866, offset: 0xC866, size: 0x8, addend: 0x0, symName: __ZNSt3__111char_traitsIcE3eofEv, symObjAddr: 0x2D20, symBinAddr: 0x100006CE8, symSize: 0x8 }
  - { offsetInCU: 0xC879, offset: 0xC879, size: 0x8, addend: 0x0, symName: __ZNKSt3__19basic_iosIcNS_11char_traitsIcEEE5widenB7v160006Ec, symObjAddr: 0x2D28, symBinAddr: 0x100006CF0, symSize: 0x8C }
  - { offsetInCU: 0xC8E6, offset: 0xC8E6, size: 0x8, addend: 0x0, symName: __ZNKSt3__15ctypeIcE5widenB7v160006Ec, symObjAddr: 0x2DE0, symBinAddr: 0x100006DA8, symSize: 0x38 }
  - { offsetInCU: 0xC919, offset: 0xC919, size: 0x8, addend: 0x0, symName: __ZNSt3__18ios_base8setstateB7v160006Ej, symObjAddr: 0x2E18, symBinAddr: 0x100006DE0, symSize: 0x34 }
  - { offsetInCU: 0xC94F, offset: 0xC94F, size: 0x8, addend: 0x0, symName: __ZNKSt3__112basic_stringIcNS_11char_traitsIcEENS_9allocatorIcEEE4sizeB7v160006Ev, symObjAddr: 0x2E4C, symBinAddr: 0x100006E14, symSize: 0x54 }
  - { offsetInCU: 0xC974, offset: 0xC974, size: 0x8, addend: 0x0, symName: __ZNKSt3__112basic_stringIcNS_11char_traitsIcEENS_9allocatorIcEEE15__get_long_sizeB7v160006Ev, symObjAddr: 0x2EA0, symBinAddr: 0x100006E68, symSize: 0x28 }
  - { offsetInCU: 0xC999, offset: 0xC999, size: 0x8, addend: 0x0, symName: __ZNKSt3__112basic_stringIcNS_11char_traitsIcEENS_9allocatorIcEEE16__get_short_sizeB7v160006Ev, symObjAddr: 0x2EC8, symBinAddr: 0x100006E90, symSize: 0x34 }
  - { offsetInCU: 0xC9BE, offset: 0xC9BE, size: 0x8, addend: 0x0, symName: __ZNSt3__16vectorINS0_INS_12basic_stringIcNS_11char_traitsIcEENS_9allocatorIcEEEENS4_IS6_EEEENS4_IS8_EEEC2ERKSA_, symObjAddr: 0x2EFC, symBinAddr: 0x100006EC4, symSize: 0x11C }
  - { offsetInCU: 0xCA26, offset: 0xCA26, size: 0x8, addend: 0x0, symName: __ZNSt3__116allocator_traitsINS_9allocatorINS_6vectorINS_12basic_stringIcNS_11char_traitsIcEENS1_IcEEEENS1_IS7_EEEEEEE37select_on_container_copy_constructionB7v160006ISA_vvEESA_RKSA_, symObjAddr: 0x3018, symBinAddr: 0x100006FE0, symSize: 0x10 }
  - { offsetInCU: 0xCA55, offset: 0xCA55, size: 0x8, addend: 0x0, symName: __ZNKSt3__16vectorINS0_INS_12basic_stringIcNS_11char_traitsIcEENS_9allocatorIcEEEENS4_IS6_EEEENS4_IS8_EEE7__allocB7v160006Ev, symObjAddr: 0x3028, symBinAddr: 0x100006FF0, symSize: 0x28 }
  - { offsetInCU: 0xCA84, offset: 0xCA84, size: 0x8, addend: 0x0, symName: __ZNSt3__117__compressed_pairIPNS_6vectorINS_12basic_stringIcNS_11char_traitsIcEENS_9allocatorIcEEEENS5_IS7_EEEENS5_IS9_EEEC1B7v160006IDnSB_EEOT_OT0_, symObjAddr: 0x3050, symBinAddr: 0x100007018, symSize: 0x3C }
  - { offsetInCU: 0xCADB, offset: 0xCADB, size: 0x8, addend: 0x0, symName: __ZNSt3__16vectorINS0_INS_12basic_stringIcNS_11char_traitsIcEENS_9allocatorIcEEEENS4_IS6_EEEENS4_IS8_EEE16__destroy_vectorC1ERSA_, symObjAddr: 0x30CC, symBinAddr: 0x100007094, symSize: 0x34 }
  - { offsetInCU: 0xCB13, offset: 0xCB13, size: 0x8, addend: 0x0, symName: __ZNKSt3__16vectorINS0_INS_12basic_stringIcNS_11char_traitsIcEENS_9allocatorIcEEEENS4_IS6_EEEENS4_IS8_EEE4sizeB7v160006Ev, symObjAddr: 0x3110, symBinAddr: 0x1000070D8, symSize: 0x28 }
  - { offsetInCU: 0xCB38, offset: 0xCB38, size: 0x8, addend: 0x0, symName: __ZNSt3__16vectorINS0_INS_12basic_stringIcNS_11char_traitsIcEENS_9allocatorIcEEEENS4_IS6_EEEENS4_IS8_EEE11__vallocateB7v160006Em, symObjAddr: 0x3138, symBinAddr: 0x100007100, symSize: 0xB4 }
  - { offsetInCU: 0xCB7A, offset: 0xCB7A, size: 0x8, addend: 0x0, symName: __ZNSt3__16vectorINS0_INS_12basic_stringIcNS_11char_traitsIcEENS_9allocatorIcEEEENS4_IS6_EEEENS4_IS8_EEE18__construct_at_endIPS8_Li0EEEvT_SD_m, symObjAddr: 0x31EC, symBinAddr: 0x1000071B4, symSize: 0x94 }
  - { offsetInCU: 0xCBEC, offset: 0xCBEC, size: 0x8, addend: 0x0, symName: __ZNSt3__128__exception_guard_exceptionsINS_6vectorINS1_INS_12basic_stringIcNS_11char_traitsIcEENS_9allocatorIcEEEENS5_IS7_EEEENS5_IS9_EEE16__destroy_vectorEE10__completeB7v160006Ev, symObjAddr: 0x3280, symBinAddr: 0x100007248, symSize: 0x1C }
  - { offsetInCU: 0xCC11, offset: 0xCC11, size: 0x8, addend: 0x0, symName: __ZNSt3__128__exception_guard_exceptionsINS_6vectorINS1_INS_12basic_stringIcNS_11char_traitsIcEENS_9allocatorIcEEEENS5_IS7_EEEENS5_IS9_EEE16__destroy_vectorEED1B7v160006Ev, symObjAddr: 0x329C, symBinAddr: 0x100007264, symSize: 0x2C }
  - { offsetInCU: 0xCC3A, offset: 0xCC3A, size: 0x8, addend: 0x0, symName: __ZNKSt3__117__compressed_pairIPNS_6vectorINS_12basic_stringIcNS_11char_traitsIcEENS_9allocatorIcEEEENS5_IS7_EEEENS5_IS9_EEE6secondB7v160006Ev, symObjAddr: 0x32C8, symBinAddr: 0x100007290, symSize: 0x24 }
  - { offsetInCU: 0xCC5F, offset: 0xCC5F, size: 0x8, addend: 0x0, symName: __ZNKSt3__122__compressed_pair_elemINS_9allocatorINS_6vectorINS_12basic_stringIcNS_11char_traitsIcEENS1_IcEEEENS1_IS7_EEEEEELi1ELb1EE5__getB7v160006Ev, symObjAddr: 0x32EC, symBinAddr: 0x1000072B4, symSize: 0x14 }
  - { offsetInCU: 0xCC84, offset: 0xCC84, size: 0x8, addend: 0x0, symName: __ZNSt3__117__compressed_pairIPNS_6vectorINS_12basic_stringIcNS_11char_traitsIcEENS_9allocatorIcEEEENS5_IS7_EEEENS5_IS9_EEEC2B7v160006IDnSB_EEOT_OT0_, symObjAddr: 0x3300, symBinAddr: 0x1000072C8, symSize: 0x44 }
  - { offsetInCU: 0xCCDB, offset: 0xCCDB, size: 0x8, addend: 0x0, symName: __ZNSt3__122__compressed_pair_elemIPNS_6vectorINS_12basic_stringIcNS_11char_traitsIcEENS_9allocatorIcEEEENS5_IS7_EEEELi0ELb0EEC2B7v160006IDnvEEOT_, symObjAddr: 0x3344, symBinAddr: 0x10000730C, symSize: 0x1C }
  - { offsetInCU: 0xCD1C, offset: 0xCD1C, size: 0x8, addend: 0x0, symName: __ZNSt3__122__compressed_pair_elemINS_9allocatorINS_6vectorINS_12basic_stringIcNS_11char_traitsIcEENS1_IcEEEENS1_IS7_EEEEEELi1ELb1EEC2B7v160006ISA_vEEOT_, symObjAddr: 0x3360, symBinAddr: 0x100007328, symSize: 0x18 }
  - { offsetInCU: 0xCD5D, offset: 0xCD5D, size: 0x8, addend: 0x0, symName: __ZNSt3__128__exception_guard_exceptionsINS_6vectorINS1_INS_12basic_stringIcNS_11char_traitsIcEENS_9allocatorIcEEEENS5_IS7_EEEENS5_IS9_EEE16__destroy_vectorEEC1B7v160006ESC_, symObjAddr: 0x3378, symBinAddr: 0x100007340, symSize: 0x34 }
  - { offsetInCU: 0xCD94, offset: 0xCD94, size: 0x8, addend: 0x0, symName: __ZNSt3__128__exception_guard_exceptionsINS_6vectorINS1_INS_12basic_stringIcNS_11char_traitsIcEENS_9allocatorIcEEEENS5_IS7_EEEENS5_IS9_EEE16__destroy_vectorEEC2B7v160006ESC_, symObjAddr: 0x33AC, symBinAddr: 0x100007374, symSize: 0x24 }
  - { offsetInCU: 0xCDCB, offset: 0xCDCB, size: 0x8, addend: 0x0, symName: __ZNSt3__16vectorINS0_INS_12basic_stringIcNS_11char_traitsIcEENS_9allocatorIcEEEENS4_IS6_EEEENS4_IS8_EEE16__destroy_vectorC2ERSA_, symObjAddr: 0x33D0, symBinAddr: 0x100007398, symSize: 0x20 }
  - { offsetInCU: 0xCE02, offset: 0xCE02, size: 0x8, addend: 0x0, symName: __ZNKSt3__16vectorINS0_INS_12basic_stringIcNS_11char_traitsIcEENS_9allocatorIcEEEENS4_IS6_EEEENS4_IS8_EEE8max_sizeEv, symObjAddr: 0x33F0, symBinAddr: 0x1000073B8, symSize: 0x74 }
  - { offsetInCU: 0xCE29, offset: 0xCE29, size: 0x8, addend: 0x0, symName: __ZNKSt3__16vectorINS0_INS_12basic_stringIcNS_11char_traitsIcEENS_9allocatorIcEEEENS4_IS6_EEEENS4_IS8_EEE20__throw_length_errorB7v160006Ev, symObjAddr: 0x3464, symBinAddr: 0x10000742C, symSize: 0x1C }
  - { offsetInCU: 0xCE4E, offset: 0xCE4E, size: 0x8, addend: 0x0, symName: __ZNSt3__16vectorINS0_INS_12basic_stringIcNS_11char_traitsIcEENS_9allocatorIcEEEENS4_IS6_EEEENS4_IS8_EEE7__allocB7v160006Ev, symObjAddr: 0x34C0, symBinAddr: 0x100007488, symSize: 0x28 }
  - { offsetInCU: 0xCE73, offset: 0xCE73, size: 0x8, addend: 0x0, symName: __ZNSt3__16vectorINS0_INS_12basic_stringIcNS_11char_traitsIcEENS_9allocatorIcEEEENS4_IS6_EEEENS4_IS8_EEE9__end_capB7v160006Ev, symObjAddr: 0x34E8, symBinAddr: 0x1000074B0, symSize: 0x28 }
  - { offsetInCU: 0xCE98, offset: 0xCE98, size: 0x8, addend: 0x0, symName: __ZNKSt3__16vectorINS0_INS_12basic_stringIcNS_11char_traitsIcEENS_9allocatorIcEEEENS4_IS6_EEEENS4_IS8_EEE14__annotate_newB7v160006Em, symObjAddr: 0x3510, symBinAddr: 0x1000074D8, symSize: 0xC8 }
  - { offsetInCU: 0xCECC, offset: 0xCECC, size: 0x8, addend: 0x0, symName: __ZNSt3__116allocator_traitsINS_9allocatorINS_6vectorINS_12basic_stringIcNS_11char_traitsIcEENS1_IcEEEENS1_IS7_EEEEEEE8max_sizeB7v160006ISA_vEEmRKSA_, symObjAddr: 0x3604, symBinAddr: 0x1000075CC, symSize: 0x24 }
  - { offsetInCU: 0xCEFA, offset: 0xCEFA, size: 0x8, addend: 0x0, symName: __ZNSt3__114numeric_limitsIlE3maxB7v160006Ev, symObjAddr: 0x3628, symBinAddr: 0x1000075F0, symSize: 0x14 }
  - { offsetInCU: 0xCF22, offset: 0xCF22, size: 0x8, addend: 0x0, symName: __ZNKSt3__16__lessImmEclB7v160006ERKmS3_, symObjAddr: 0x3690, symBinAddr: 0x100007658, symSize: 0x34 }
  - { offsetInCU: 0xCF63, offset: 0xCF63, size: 0x8, addend: 0x0, symName: __ZNKSt3__19allocatorINS_6vectorINS_12basic_stringIcNS_11char_traitsIcEENS0_IcEEEENS0_IS6_EEEEE8max_sizeB7v160006Ev, symObjAddr: 0x36C4, symBinAddr: 0x10000768C, symSize: 0x18 }
  - { offsetInCU: 0xCF88, offset: 0xCF88, size: 0x8, addend: 0x0, symName: __ZNSt3__123__libcpp_numeric_limitsIlLb1EE3maxB7v160006Ev, symObjAddr: 0x36DC, symBinAddr: 0x1000076A4, symSize: 0x8 }
  - { offsetInCU: 0xCF9C, offset: 0xCF9C, size: 0x8, addend: 0x0, symName: __ZNSt12length_errorC1B7v160006EPKc, symObjAddr: 0x3748, symBinAddr: 0x100007710, symSize: 0x34 }
  - { offsetInCU: 0xCFD3, offset: 0xCFD3, size: 0x8, addend: 0x0, symName: __ZNSt12length_errorC2B7v160006EPKc, symObjAddr: 0x377C, symBinAddr: 0x100007744, symSize: 0x4C }
  - { offsetInCU: 0xD00A, offset: 0xD00A, size: 0x8, addend: 0x0, symName: __ZNSt3__19allocatorINS_6vectorINS_12basic_stringIcNS_11char_traitsIcEENS0_IcEEEENS0_IS6_EEEEE8allocateB7v160006Em, symObjAddr: 0x37C8, symBinAddr: 0x100007790, symSize: 0x8C }
  - { offsetInCU: 0xD03D, offset: 0xD03D, size: 0x8, addend: 0x0, symName: __ZNSt3__117__compressed_pairIPNS_6vectorINS_12basic_stringIcNS_11char_traitsIcEENS_9allocatorIcEEEENS5_IS7_EEEENS5_IS9_EEE6secondB7v160006Ev, symObjAddr: 0x38D4, symBinAddr: 0x10000789C, symSize: 0x24 }
  - { offsetInCU: 0xD062, offset: 0xD062, size: 0x8, addend: 0x0, symName: __ZNSt3__122__compressed_pair_elemINS_9allocatorINS_6vectorINS_12basic_stringIcNS_11char_traitsIcEENS1_IcEEEENS1_IS7_EEEEEELi1ELb1EE5__getB7v160006Ev, symObjAddr: 0x38F8, symBinAddr: 0x1000078C0, symSize: 0x14 }
  - { offsetInCU: 0xD087, offset: 0xD087, size: 0x8, addend: 0x0, symName: __ZNSt3__117__compressed_pairIPNS_6vectorINS_12basic_stringIcNS_11char_traitsIcEENS_9allocatorIcEEEENS5_IS7_EEEENS5_IS9_EEE5firstB7v160006Ev, symObjAddr: 0x390C, symBinAddr: 0x1000078D4, symSize: 0x24 }
  - { offsetInCU: 0xD0AC, offset: 0xD0AC, size: 0x8, addend: 0x0, symName: __ZNSt3__122__compressed_pair_elemIPNS_6vectorINS_12basic_stringIcNS_11char_traitsIcEENS_9allocatorIcEEEENS5_IS7_EEEELi0ELb0EE5__getB7v160006Ev, symObjAddr: 0x3930, symBinAddr: 0x1000078F8, symSize: 0x14 }
  - { offsetInCU: 0xD0D1, offset: 0xD0D1, size: 0x8, addend: 0x0, symName: __ZNKSt3__16vectorINS0_INS_12basic_stringIcNS_11char_traitsIcEENS_9allocatorIcEEEENS4_IS6_EEEENS4_IS8_EEE31__annotate_contiguous_containerB7v160006EPKvSC_SC_SC_, symObjAddr: 0x3944, symBinAddr: 0x10000790C, symSize: 0x20 }
  - { offsetInCU: 0xD126, offset: 0xD126, size: 0x8, addend: 0x0, symName: __ZNKSt3__16vectorINS0_INS_12basic_stringIcNS_11char_traitsIcEENS_9allocatorIcEEEENS4_IS6_EEEENS4_IS8_EEE4dataB7v160006Ev, symObjAddr: 0x3964, symBinAddr: 0x10000792C, symSize: 0x28 }
  - { offsetInCU: 0xD14B, offset: 0xD14B, size: 0x8, addend: 0x0, symName: __ZNKSt3__16vectorINS0_INS_12basic_stringIcNS_11char_traitsIcEENS_9allocatorIcEEEENS4_IS6_EEEENS4_IS8_EEE8capacityB7v160006Ev, symObjAddr: 0x398C, symBinAddr: 0x100007954, symSize: 0x40 }
  - { offsetInCU: 0xD170, offset: 0xD170, size: 0x8, addend: 0x0, symName: __ZNKSt3__16vectorINS0_INS_12basic_stringIcNS_11char_traitsIcEENS_9allocatorIcEEEENS4_IS6_EEEENS4_IS8_EEE9__end_capB7v160006Ev, symObjAddr: 0x39E0, symBinAddr: 0x1000079A8, symSize: 0x28 }
  - { offsetInCU: 0xD195, offset: 0xD195, size: 0x8, addend: 0x0, symName: __ZNKSt3__117__compressed_pairIPNS_6vectorINS_12basic_stringIcNS_11char_traitsIcEENS_9allocatorIcEEEENS5_IS7_EEEENS5_IS9_EEE5firstB7v160006Ev, symObjAddr: 0x3A08, symBinAddr: 0x1000079D0, symSize: 0x24 }
  - { offsetInCU: 0xD1BA, offset: 0xD1BA, size: 0x8, addend: 0x0, symName: __ZNKSt3__122__compressed_pair_elemIPNS_6vectorINS_12basic_stringIcNS_11char_traitsIcEENS_9allocatorIcEEEENS5_IS7_EEEELi0ELb0EE5__getB7v160006Ev, symObjAddr: 0x3A2C, symBinAddr: 0x1000079F4, symSize: 0x14 }
  - { offsetInCU: 0xD1F8, offset: 0xD1F8, size: 0x8, addend: 0x0, symName: __ZNSt3__16vectorINS0_INS_12basic_stringIcNS_11char_traitsIcEENS_9allocatorIcEEEENS4_IS6_EEEENS4_IS8_EEE21_ConstructTransactionC1B7v160006ERSA_m, symObjAddr: 0x3A40, symBinAddr: 0x100007A08, symSize: 0x3C }
  - { offsetInCU: 0xD23F, offset: 0xD23F, size: 0x8, addend: 0x0, symName: __ZNSt3__16vectorINS0_INS_12basic_stringIcNS_11char_traitsIcEENS_9allocatorIcEEEENS4_IS6_EEEENS4_IS8_EEE21_ConstructTransactionD1B7v160006Ev, symObjAddr: 0x3B78, symBinAddr: 0x100007B40, symSize: 0x2C }
  - { offsetInCU: 0xD268, offset: 0xD268, size: 0x8, addend: 0x0, symName: __ZNSt3__16vectorINS0_INS_12basic_stringIcNS_11char_traitsIcEENS_9allocatorIcEEEENS4_IS6_EEEENS4_IS8_EEE21_ConstructTransactionC2B7v160006ERSA_m, symObjAddr: 0x3BA4, symBinAddr: 0x100007B6C, symSize: 0x4C }
  - { offsetInCU: 0xD2AF, offset: 0xD2AF, size: 0x8, addend: 0x0, symName: __ZNSt3__129_AllocatorDestroyRangeReverseINS_9allocatorINS_6vectorINS_12basic_stringIcNS_11char_traitsIcEENS1_IcEEEENS1_IS7_EEEEEEPS9_EC1B7v160006ERSA_RSB_SE_, symObjAddr: 0x3C3C, symBinAddr: 0x100007C04, symSize: 0x44 }
  - { offsetInCU: 0xD305, offset: 0xD305, size: 0x8, addend: 0x0, symName: __ZNSt3__116allocator_traitsINS_9allocatorINS_6vectorINS_12basic_stringIcNS_11char_traitsIcEENS1_IcEEEENS1_IS7_EEEEEEE9constructB7v160006IS9_JRS9_EvEEvRSA_PT_DpOT0_, symObjAddr: 0x3C80, symBinAddr: 0x100007C48, symSize: 0x34 }
  - { offsetInCU: 0xD35C, offset: 0xD35C, size: 0x8, addend: 0x0, symName: __ZNSt3__128__exception_guard_exceptionsINS_29_AllocatorDestroyRangeReverseINS_9allocatorINS_6vectorINS_12basic_stringIcNS_11char_traitsIcEENS2_IcEEEENS2_IS8_EEEEEEPSA_EEE10__completeB7v160006Ev, symObjAddr: 0x3CB4, symBinAddr: 0x100007C7C, symSize: 0x1C }
  - { offsetInCU: 0xD381, offset: 0xD381, size: 0x8, addend: 0x0, symName: __ZNSt3__128__exception_guard_exceptionsINS_29_AllocatorDestroyRangeReverseINS_9allocatorINS_6vectorINS_12basic_stringIcNS_11char_traitsIcEENS2_IcEEEENS2_IS8_EEEEEEPSA_EEED1B7v160006Ev, symObjAddr: 0x3CD0, symBinAddr: 0x100007C98, symSize: 0x2C }
  - { offsetInCU: 0xD3AA, offset: 0xD3AA, size: 0x8, addend: 0x0, symName: __ZNSt3__128__exception_guard_exceptionsINS_29_AllocatorDestroyRangeReverseINS_9allocatorINS_6vectorINS_12basic_stringIcNS_11char_traitsIcEENS2_IcEEEENS2_IS8_EEEEEEPSA_EEEC1B7v160006ESD_, symObjAddr: 0x3CFC, symBinAddr: 0x100007CC4, symSize: 0x34 }
  - { offsetInCU: 0xD3E2, offset: 0xD3E2, size: 0x8, addend: 0x0, symName: __ZNSt3__128__exception_guard_exceptionsINS_29_AllocatorDestroyRangeReverseINS_9allocatorINS_6vectorINS_12basic_stringIcNS_11char_traitsIcEENS2_IcEEEENS2_IS8_EEEEEEPSA_EEEC2B7v160006ESD_, symObjAddr: 0x3D30, symBinAddr: 0x100007CF8, symSize: 0x30 }
  - { offsetInCU: 0xD41A, offset: 0xD41A, size: 0x8, addend: 0x0, symName: __ZNSt3__129_AllocatorDestroyRangeReverseINS_9allocatorINS_6vectorINS_12basic_stringIcNS_11char_traitsIcEENS1_IcEEEENS1_IS7_EEEEEEPS9_EC2B7v160006ERSA_RSB_SE_, symObjAddr: 0x3D60, symBinAddr: 0x100007D28, symSize: 0x38 }
  - { offsetInCU: 0xD470, offset: 0xD470, size: 0x8, addend: 0x0, symName: __ZNSt3__19allocatorINS_6vectorINS_12basic_stringIcNS_11char_traitsIcEENS0_IcEEEENS0_IS6_EEEEE9constructB7v160006IS8_JRS8_EEEvPT_DpOT0_, symObjAddr: 0x3D98, symBinAddr: 0x100007D60, symSize: 0x30 }
  - { offsetInCU: 0xD4C5, offset: 0xD4C5, size: 0x8, addend: 0x0, symName: __ZNSt3__16vectorINS_12basic_stringIcNS_11char_traitsIcEENS_9allocatorIcEEEENS4_IS6_EEEC1ERKS8_, symObjAddr: 0x3DC8, symBinAddr: 0x100007D90, symSize: 0x34 }
  - { offsetInCU: 0xD4FF, offset: 0xD4FF, size: 0x8, addend: 0x0, symName: __ZNSt3__16vectorINS_12basic_stringIcNS_11char_traitsIcEENS_9allocatorIcEEEENS4_IS6_EEEC2ERKS8_, symObjAddr: 0x3DFC, symBinAddr: 0x100007DC4, symSize: 0x11C }
  - { offsetInCU: 0xD567, offset: 0xD567, size: 0x8, addend: 0x0, symName: __ZNSt3__116allocator_traitsINS_9allocatorINS_12basic_stringIcNS_11char_traitsIcEENS1_IcEEEEEEE37select_on_container_copy_constructionB7v160006IS7_vvEES7_RKS7_, symObjAddr: 0x3F18, symBinAddr: 0x100007EE0, symSize: 0x10 }
  - { offsetInCU: 0xD596, offset: 0xD596, size: 0x8, addend: 0x0, symName: __ZNKSt3__16vectorINS_12basic_stringIcNS_11char_traitsIcEENS_9allocatorIcEEEENS4_IS6_EEE7__allocB7v160006Ev, symObjAddr: 0x3F28, symBinAddr: 0x100007EF0, symSize: 0x28 }
  - { offsetInCU: 0xD5C0, offset: 0xD5C0, size: 0x8, addend: 0x0, symName: __ZNSt3__117__compressed_pairIPNS_12basic_stringIcNS_11char_traitsIcEENS_9allocatorIcEEEENS4_IS6_EEEC1B7v160006IDnS8_EEOT_OT0_, symObjAddr: 0x3F50, symBinAddr: 0x100007F18, symSize: 0x3C }
  - { offsetInCU: 0xD617, offset: 0xD617, size: 0x8, addend: 0x0, symName: __ZNSt3__16vectorINS_12basic_stringIcNS_11char_traitsIcEENS_9allocatorIcEEEENS4_IS6_EEE16__destroy_vectorC1ERS8_, symObjAddr: 0x3FCC, symBinAddr: 0x100007F94, symSize: 0x34 }
  - { offsetInCU: 0xD64F, offset: 0xD64F, size: 0x8, addend: 0x0, symName: __ZNKSt3__16vectorINS_12basic_stringIcNS_11char_traitsIcEENS_9allocatorIcEEEENS4_IS6_EEE4sizeB7v160006Ev, symObjAddr: 0x4010, symBinAddr: 0x100007FD8, symSize: 0x28 }
  - { offsetInCU: 0xD674, offset: 0xD674, size: 0x8, addend: 0x0, symName: __ZNSt3__16vectorINS_12basic_stringIcNS_11char_traitsIcEENS_9allocatorIcEEEENS4_IS6_EEE11__vallocateB7v160006Em, symObjAddr: 0x4038, symBinAddr: 0x100008000, symSize: 0xB4 }
  - { offsetInCU: 0xD6B6, offset: 0xD6B6, size: 0x8, addend: 0x0, symName: __ZNSt3__16vectorINS_12basic_stringIcNS_11char_traitsIcEENS_9allocatorIcEEEENS4_IS6_EEE18__construct_at_endIPS6_Li0EEEvT_SB_m, symObjAddr: 0x40EC, symBinAddr: 0x1000080B4, symSize: 0x94 }
  - { offsetInCU: 0xD728, offset: 0xD728, size: 0x8, addend: 0x0, symName: __ZNSt3__128__exception_guard_exceptionsINS_6vectorINS_12basic_stringIcNS_11char_traitsIcEENS_9allocatorIcEEEENS5_IS7_EEE16__destroy_vectorEE10__completeB7v160006Ev, symObjAddr: 0x4180, symBinAddr: 0x100008148, symSize: 0x1C }
  - { offsetInCU: 0xD74D, offset: 0xD74D, size: 0x8, addend: 0x0, symName: __ZNSt3__128__exception_guard_exceptionsINS_6vectorINS_12basic_stringIcNS_11char_traitsIcEENS_9allocatorIcEEEENS5_IS7_EEE16__destroy_vectorEED1B7v160006Ev, symObjAddr: 0x419C, symBinAddr: 0x100008164, symSize: 0x2C }
  - { offsetInCU: 0xD776, offset: 0xD776, size: 0x8, addend: 0x0, symName: __ZNKSt3__117__compressed_pairIPNS_12basic_stringIcNS_11char_traitsIcEENS_9allocatorIcEEEENS4_IS6_EEE6secondB7v160006Ev, symObjAddr: 0x41C8, symBinAddr: 0x100008190, symSize: 0x24 }
  - { offsetInCU: 0xD79B, offset: 0xD79B, size: 0x8, addend: 0x0, symName: __ZNKSt3__122__compressed_pair_elemINS_9allocatorINS_12basic_stringIcNS_11char_traitsIcEENS1_IcEEEEEELi1ELb1EE5__getB7v160006Ev, symObjAddr: 0x41EC, symBinAddr: 0x1000081B4, symSize: 0x14 }
  - { offsetInCU: 0xD7C0, offset: 0xD7C0, size: 0x8, addend: 0x0, symName: __ZNSt3__117__compressed_pairIPNS_12basic_stringIcNS_11char_traitsIcEENS_9allocatorIcEEEENS4_IS6_EEEC2B7v160006IDnS8_EEOT_OT0_, symObjAddr: 0x4200, symBinAddr: 0x1000081C8, symSize: 0x44 }
  - { offsetInCU: 0xD817, offset: 0xD817, size: 0x8, addend: 0x0, symName: __ZNSt3__122__compressed_pair_elemIPNS_12basic_stringIcNS_11char_traitsIcEENS_9allocatorIcEEEELi0ELb0EEC2B7v160006IDnvEEOT_, symObjAddr: 0x4244, symBinAddr: 0x10000820C, symSize: 0x1C }
  - { offsetInCU: 0xD858, offset: 0xD858, size: 0x8, addend: 0x0, symName: __ZNSt3__122__compressed_pair_elemINS_9allocatorINS_12basic_stringIcNS_11char_traitsIcEENS1_IcEEEEEELi1ELb1EEC2B7v160006IS7_vEEOT_, symObjAddr: 0x4260, symBinAddr: 0x100008228, symSize: 0x18 }
  - { offsetInCU: 0xD899, offset: 0xD899, size: 0x8, addend: 0x0, symName: __ZNSt3__128__exception_guard_exceptionsINS_6vectorINS_12basic_stringIcNS_11char_traitsIcEENS_9allocatorIcEEEENS5_IS7_EEE16__destroy_vectorEEC1B7v160006ESA_, symObjAddr: 0x4278, symBinAddr: 0x100008240, symSize: 0x34 }
  - { offsetInCU: 0xD8D0, offset: 0xD8D0, size: 0x8, addend: 0x0, symName: __ZNSt3__128__exception_guard_exceptionsINS_6vectorINS_12basic_stringIcNS_11char_traitsIcEENS_9allocatorIcEEEENS5_IS7_EEE16__destroy_vectorEEC2B7v160006ESA_, symObjAddr: 0x42AC, symBinAddr: 0x100008274, symSize: 0x24 }
  - { offsetInCU: 0xD907, offset: 0xD907, size: 0x8, addend: 0x0, symName: __ZNSt3__16vectorINS_12basic_stringIcNS_11char_traitsIcEENS_9allocatorIcEEEENS4_IS6_EEE16__destroy_vectorC2ERS8_, symObjAddr: 0x42D0, symBinAddr: 0x100008298, symSize: 0x20 }
  - { offsetInCU: 0xD93E, offset: 0xD93E, size: 0x8, addend: 0x0, symName: __ZNKSt3__16vectorINS_12basic_stringIcNS_11char_traitsIcEENS_9allocatorIcEEEENS4_IS6_EEE8max_sizeEv, symObjAddr: 0x42F0, symBinAddr: 0x1000082B8, symSize: 0x74 }
  - { offsetInCU: 0xD965, offset: 0xD965, size: 0x8, addend: 0x0, symName: __ZNKSt3__16vectorINS_12basic_stringIcNS_11char_traitsIcEENS_9allocatorIcEEEENS4_IS6_EEE20__throw_length_errorB7v160006Ev, symObjAddr: 0x4364, symBinAddr: 0x10000832C, symSize: 0x1C }
  - { offsetInCU: 0xD98A, offset: 0xD98A, size: 0x8, addend: 0x0, symName: __ZNSt3__16vectorINS_12basic_stringIcNS_11char_traitsIcEENS_9allocatorIcEEEENS4_IS6_EEE7__allocB7v160006Ev, symObjAddr: 0x43C0, symBinAddr: 0x100008388, symSize: 0x28 }
  - { offsetInCU: 0xD9AF, offset: 0xD9AF, size: 0x8, addend: 0x0, symName: __ZNSt3__16vectorINS_12basic_stringIcNS_11char_traitsIcEENS_9allocatorIcEEEENS4_IS6_EEE9__end_capB7v160006Ev, symObjAddr: 0x43E8, symBinAddr: 0x1000083B0, symSize: 0x28 }
  - { offsetInCU: 0xD9D4, offset: 0xD9D4, size: 0x8, addend: 0x0, symName: __ZNKSt3__16vectorINS_12basic_stringIcNS_11char_traitsIcEENS_9allocatorIcEEEENS4_IS6_EEE14__annotate_newB7v160006Em, symObjAddr: 0x4410, symBinAddr: 0x1000083D8, symSize: 0xC8 }
  - { offsetInCU: 0xDA08, offset: 0xDA08, size: 0x8, addend: 0x0, symName: __ZNSt3__116allocator_traitsINS_9allocatorINS_12basic_stringIcNS_11char_traitsIcEENS1_IcEEEEEEE8max_sizeB7v160006IS7_vEEmRKS7_, symObjAddr: 0x44D8, symBinAddr: 0x1000084A0, symSize: 0x24 }
  - { offsetInCU: 0xDA36, offset: 0xDA36, size: 0x8, addend: 0x0, symName: __ZNKSt3__19allocatorINS_12basic_stringIcNS_11char_traitsIcEENS0_IcEEEEE8max_sizeB7v160006Ev, symObjAddr: 0x44FC, symBinAddr: 0x1000084C4, symSize: 0x18 }
  - { offsetInCU: 0xDA5B, offset: 0xDA5B, size: 0x8, addend: 0x0, symName: __ZNSt3__19allocatorINS_12basic_stringIcNS_11char_traitsIcEENS0_IcEEEEE8allocateB7v160006Em, symObjAddr: 0x4514, symBinAddr: 0x1000084DC, symSize: 0x8C }
  - { offsetInCU: 0xDA8E, offset: 0xDA8E, size: 0x8, addend: 0x0, symName: __ZNSt3__117__compressed_pairIPNS_12basic_stringIcNS_11char_traitsIcEENS_9allocatorIcEEEENS4_IS6_EEE6secondB7v160006Ev, symObjAddr: 0x45A0, symBinAddr: 0x100008568, symSize: 0x24 }
  - { offsetInCU: 0xDAB3, offset: 0xDAB3, size: 0x8, addend: 0x0, symName: __ZNSt3__122__compressed_pair_elemINS_9allocatorINS_12basic_stringIcNS_11char_traitsIcEENS1_IcEEEEEELi1ELb1EE5__getB7v160006Ev, symObjAddr: 0x45C4, symBinAddr: 0x10000858C, symSize: 0x14 }
  - { offsetInCU: 0xDAD8, offset: 0xDAD8, size: 0x8, addend: 0x0, symName: __ZNSt3__117__compressed_pairIPNS_12basic_stringIcNS_11char_traitsIcEENS_9allocatorIcEEEENS4_IS6_EEE5firstB7v160006Ev, symObjAddr: 0x45D8, symBinAddr: 0x1000085A0, symSize: 0x24 }
  - { offsetInCU: 0xDAFD, offset: 0xDAFD, size: 0x8, addend: 0x0, symName: __ZNSt3__122__compressed_pair_elemIPNS_12basic_stringIcNS_11char_traitsIcEENS_9allocatorIcEEEELi0ELb0EE5__getB7v160006Ev, symObjAddr: 0x45FC, symBinAddr: 0x1000085C4, symSize: 0x14 }
  - { offsetInCU: 0xDB22, offset: 0xDB22, size: 0x8, addend: 0x0, symName: __ZNKSt3__16vectorINS_12basic_stringIcNS_11char_traitsIcEENS_9allocatorIcEEEENS4_IS6_EEE31__annotate_contiguous_containerB7v160006EPKvSA_SA_SA_, symObjAddr: 0x4610, symBinAddr: 0x1000085D8, symSize: 0x20 }
  - { offsetInCU: 0xDB77, offset: 0xDB77, size: 0x8, addend: 0x0, symName: __ZNKSt3__16vectorINS_12basic_stringIcNS_11char_traitsIcEENS_9allocatorIcEEEENS4_IS6_EEE4dataB7v160006Ev, symObjAddr: 0x4630, symBinAddr: 0x1000085F8, symSize: 0x28 }
  - { offsetInCU: 0xDB9C, offset: 0xDB9C, size: 0x8, addend: 0x0, symName: __ZNKSt3__16vectorINS_12basic_stringIcNS_11char_traitsIcEENS_9allocatorIcEEEENS4_IS6_EEE8capacityB7v160006Ev, symObjAddr: 0x4658, symBinAddr: 0x100008620, symSize: 0x40 }
  - { offsetInCU: 0xDBC1, offset: 0xDBC1, size: 0x8, addend: 0x0, symName: __ZNKSt3__16vectorINS_12basic_stringIcNS_11char_traitsIcEENS_9allocatorIcEEEENS4_IS6_EEE9__end_capB7v160006Ev, symObjAddr: 0x46AC, symBinAddr: 0x100008674, symSize: 0x28 }
  - { offsetInCU: 0xDBE6, offset: 0xDBE6, size: 0x8, addend: 0x0, symName: __ZNKSt3__117__compressed_pairIPNS_12basic_stringIcNS_11char_traitsIcEENS_9allocatorIcEEEENS4_IS6_EEE5firstB7v160006Ev, symObjAddr: 0x46D4, symBinAddr: 0x10000869C, symSize: 0x24 }
  - { offsetInCU: 0xDC0B, offset: 0xDC0B, size: 0x8, addend: 0x0, symName: __ZNKSt3__122__compressed_pair_elemIPNS_12basic_stringIcNS_11char_traitsIcEENS_9allocatorIcEEEELi0ELb0EE5__getB7v160006Ev, symObjAddr: 0x46F8, symBinAddr: 0x1000086C0, symSize: 0x14 }
  - { offsetInCU: 0xDC49, offset: 0xDC49, size: 0x8, addend: 0x0, symName: __ZNSt3__16vectorINS_12basic_stringIcNS_11char_traitsIcEENS_9allocatorIcEEEENS4_IS6_EEE21_ConstructTransactionC1B7v160006ERS8_m, symObjAddr: 0x470C, symBinAddr: 0x1000086D4, symSize: 0x3C }
  - { offsetInCU: 0xDC90, offset: 0xDC90, size: 0x8, addend: 0x0, symName: __ZNSt3__16vectorINS_12basic_stringIcNS_11char_traitsIcEENS_9allocatorIcEEEENS4_IS6_EEE21_ConstructTransactionD1B7v160006Ev, symObjAddr: 0x4844, symBinAddr: 0x10000880C, symSize: 0x2C }
  - { offsetInCU: 0xDCB9, offset: 0xDCB9, size: 0x8, addend: 0x0, symName: __ZNSt3__16vectorINS_12basic_stringIcNS_11char_traitsIcEENS_9allocatorIcEEEENS4_IS6_EEE21_ConstructTransactionC2B7v160006ERS8_m, symObjAddr: 0x4870, symBinAddr: 0x100008838, symSize: 0x4C }
  - { offsetInCU: 0xDD00, offset: 0xDD00, size: 0x8, addend: 0x0, symName: __ZNSt3__129_AllocatorDestroyRangeReverseINS_9allocatorINS_12basic_stringIcNS_11char_traitsIcEENS1_IcEEEEEEPS6_EC1B7v160006ERS7_RS8_SB_, symObjAddr: 0x4908, symBinAddr: 0x1000088D0, symSize: 0x44 }
  - { offsetInCU: 0xDD56, offset: 0xDD56, size: 0x8, addend: 0x0, symName: __ZNSt3__116allocator_traitsINS_9allocatorINS_12basic_stringIcNS_11char_traitsIcEENS1_IcEEEEEEE9constructB7v160006IS6_JRS6_EvEEvRS7_PT_DpOT0_, symObjAddr: 0x494C, symBinAddr: 0x100008914, symSize: 0x34 }
  - { offsetInCU: 0xDDAD, offset: 0xDDAD, size: 0x8, addend: 0x0, symName: __ZNSt3__128__exception_guard_exceptionsINS_29_AllocatorDestroyRangeReverseINS_9allocatorINS_12basic_stringIcNS_11char_traitsIcEENS2_IcEEEEEEPS7_EEE10__completeB7v160006Ev, symObjAddr: 0x4980, symBinAddr: 0x100008948, symSize: 0x1C }
  - { offsetInCU: 0xDDD2, offset: 0xDDD2, size: 0x8, addend: 0x0, symName: __ZNSt3__128__exception_guard_exceptionsINS_29_AllocatorDestroyRangeReverseINS_9allocatorINS_12basic_stringIcNS_11char_traitsIcEENS2_IcEEEEEEPS7_EEED1B7v160006Ev, symObjAddr: 0x499C, symBinAddr: 0x100008964, symSize: 0x2C }
  - { offsetInCU: 0xDDFB, offset: 0xDDFB, size: 0x8, addend: 0x0, symName: __ZNSt3__128__exception_guard_exceptionsINS_29_AllocatorDestroyRangeReverseINS_9allocatorINS_12basic_stringIcNS_11char_traitsIcEENS2_IcEEEEEEPS7_EEEC1B7v160006ESA_, symObjAddr: 0x49C8, symBinAddr: 0x100008990, symSize: 0x34 }
  - { offsetInCU: 0xDE33, offset: 0xDE33, size: 0x8, addend: 0x0, symName: __ZNSt3__128__exception_guard_exceptionsINS_29_AllocatorDestroyRangeReverseINS_9allocatorINS_12basic_stringIcNS_11char_traitsIcEENS2_IcEEEEEEPS7_EEEC2B7v160006ESA_, symObjAddr: 0x49FC, symBinAddr: 0x1000089C4, symSize: 0x30 }
  - { offsetInCU: 0xDE6B, offset: 0xDE6B, size: 0x8, addend: 0x0, symName: __ZNSt3__129_AllocatorDestroyRangeReverseINS_9allocatorINS_12basic_stringIcNS_11char_traitsIcEENS1_IcEEEEEEPS6_EC2B7v160006ERS7_RS8_SB_, symObjAddr: 0x4A2C, symBinAddr: 0x1000089F4, symSize: 0x38 }
  - { offsetInCU: 0xDEC1, offset: 0xDEC1, size: 0x8, addend: 0x0, symName: __ZNSt3__19allocatorINS_12basic_stringIcNS_11char_traitsIcEENS0_IcEEEEE9constructB7v160006IS5_JRS5_EEEvPT_DpOT0_, symObjAddr: 0x4A64, symBinAddr: 0x100008A2C, symSize: 0x30 }
  - { offsetInCU: 0xDF16, offset: 0xDF16, size: 0x8, addend: 0x0, symName: __ZNSt3__128__exception_guard_exceptionsINS_29_AllocatorDestroyRangeReverseINS_9allocatorINS_12basic_stringIcNS_11char_traitsIcEENS2_IcEEEEEEPS7_EEED2B7v160006Ev, symObjAddr: 0x4A94, symBinAddr: 0x100008A5C, symSize: 0x48 }
  - { offsetInCU: 0xDF3F, offset: 0xDF3F, size: 0x8, addend: 0x0, symName: __ZNKSt3__129_AllocatorDestroyRangeReverseINS_9allocatorINS_12basic_stringIcNS_11char_traitsIcEENS1_IcEEEEEEPS6_EclB7v160006Ev, symObjAddr: 0x4ADC, symBinAddr: 0x100008AA4, symSize: 0x68 }
  - { offsetInCU: 0xDF64, offset: 0xDF64, size: 0x8, addend: 0x0, symName: __ZNSt3__116reverse_iteratorIPNS_12basic_stringIcNS_11char_traitsIcEENS_9allocatorIcEEEEEC1B7v160006ES7_, symObjAddr: 0x4BB4, symBinAddr: 0x100008B7C, symSize: 0x34 }
  - { offsetInCU: 0xDF9B, offset: 0xDF9B, size: 0x8, addend: 0x0, symName: __ZNSt3__116allocator_traitsINS_9allocatorINS_12basic_stringIcNS_11char_traitsIcEENS1_IcEEEEEEE7destroyB7v160006IS6_vEEvRS7_PT_, symObjAddr: 0x4C30, symBinAddr: 0x100008BF8, symSize: 0x2C }
  - { offsetInCU: 0xDFD8, offset: 0xDFD8, size: 0x8, addend: 0x0, symName: __ZNSt3__116reverse_iteratorIPNS_12basic_stringIcNS_11char_traitsIcEENS_9allocatorIcEEEEEppB7v160006Ev, symObjAddr: 0x4C80, symBinAddr: 0x100008C48, symSize: 0x20 }
  - { offsetInCU: 0xDFFD, offset: 0xDFFD, size: 0x8, addend: 0x0, symName: __ZNKSt3__116reverse_iteratorIPNS_12basic_stringIcNS_11char_traitsIcEENS_9allocatorIcEEEEE4baseB7v160006Ev, symObjAddr: 0x4CA0, symBinAddr: 0x100008C68, symSize: 0x18 }
  - { offsetInCU: 0xE022, offset: 0xE022, size: 0x8, addend: 0x0, symName: __ZNSt3__19allocatorINS_12basic_stringIcNS_11char_traitsIcEENS0_IcEEEEE7destroyB7v160006EPS5_, symObjAddr: 0x4CB8, symBinAddr: 0x100008C80, symSize: 0x28 }
  - { offsetInCU: 0xE05A, offset: 0xE05A, size: 0x8, addend: 0x0, symName: __ZNSt3__119__to_address_helperINS_16reverse_iteratorIPNS_12basic_stringIcNS_11char_traitsIcEENS_9allocatorIcEEEEEEvE6__callB7v160006ERKS9_, symObjAddr: 0x4CE0, symBinAddr: 0x100008CA8, symSize: 0x4C }
  - { offsetInCU: 0xE07D, offset: 0xE07D, size: 0x8, addend: 0x0, symName: __ZNKSt3__116reverse_iteratorIPNS_12basic_stringIcNS_11char_traitsIcEENS_9allocatorIcEEEEEptB7v160006Ev, symObjAddr: 0x4D2C, symBinAddr: 0x100008CF4, symSize: 0x24 }
  - { offsetInCU: 0xE0A2, offset: 0xE0A2, size: 0x8, addend: 0x0, symName: __ZNKSt3__116reverse_iteratorIPNS_12basic_stringIcNS_11char_traitsIcEENS_9allocatorIcEEEEEdeB7v160006Ev, symObjAddr: 0x4D50, symBinAddr: 0x100008D18, symSize: 0x28 }
  - { offsetInCU: 0xE0D5, offset: 0xE0D5, size: 0x8, addend: 0x0, symName: __ZNSt3__116reverse_iteratorIPNS_12basic_stringIcNS_11char_traitsIcEENS_9allocatorIcEEEEEC2B7v160006ES7_, symObjAddr: 0x4D78, symBinAddr: 0x100008D40, symSize: 0x28 }
  - { offsetInCU: 0xE10C, offset: 0xE10C, size: 0x8, addend: 0x0, symName: __ZNSt3__16vectorINS_12basic_stringIcNS_11char_traitsIcEENS_9allocatorIcEEEENS4_IS6_EEE21_ConstructTransactionD2B7v160006Ev, symObjAddr: 0x4DA0, symBinAddr: 0x100008D68, symSize: 0x20 }
  - { offsetInCU: 0xE135, offset: 0xE135, size: 0x8, addend: 0x0, symName: __ZNSt3__128__exception_guard_exceptionsINS_6vectorINS_12basic_stringIcNS_11char_traitsIcEENS_9allocatorIcEEEENS5_IS7_EEE16__destroy_vectorEED2B7v160006Ev, symObjAddr: 0x4DC0, symBinAddr: 0x100008D88, symSize: 0x48 }
  - { offsetInCU: 0xE15E, offset: 0xE15E, size: 0x8, addend: 0x0, symName: __ZNSt3__16vectorINS_12basic_stringIcNS_11char_traitsIcEENS_9allocatorIcEEEENS4_IS6_EEE16__destroy_vectorclB7v160006Ev, symObjAddr: 0x4E08, symBinAddr: 0x100008DD0, symSize: 0x9C }
  - { offsetInCU: 0xE183, offset: 0xE183, size: 0x8, addend: 0x0, symName: __ZNKSt3__16vectorINS_12basic_stringIcNS_11char_traitsIcEENS_9allocatorIcEEEENS4_IS6_EEE17__annotate_deleteB7v160006Ev, symObjAddr: 0x4EA4, symBinAddr: 0x100008E6C, symSize: 0xD4 }
  - { offsetInCU: 0xE1A8, offset: 0xE1A8, size: 0x8, addend: 0x0, symName: __ZNSt3__16vectorINS_12basic_stringIcNS_11char_traitsIcEENS_9allocatorIcEEEENS4_IS6_EEE7__clearB7v160006Ev, symObjAddr: 0x4F88, symBinAddr: 0x100008F50, symSize: 0x28 }
  - { offsetInCU: 0xE1CD, offset: 0xE1CD, size: 0x8, addend: 0x0, symName: __ZNSt3__116allocator_traitsINS_9allocatorINS_12basic_stringIcNS_11char_traitsIcEENS1_IcEEEEEEE10deallocateB7v160006ERS7_PS6_m, symObjAddr: 0x4FB0, symBinAddr: 0x100008F78, symSize: 0x34 }
  - { offsetInCU: 0xE20F, offset: 0xE20F, size: 0x8, addend: 0x0, symName: __ZNSt3__16vectorINS_12basic_stringIcNS_11char_traitsIcEENS_9allocatorIcEEEENS4_IS6_EEE22__base_destruct_at_endB7v160006EPS6_, symObjAddr: 0x4FE4, symBinAddr: 0x100008FAC, symSize: 0xA0 }
  - { offsetInCU: 0xE252, offset: 0xE252, size: 0x8, addend: 0x0, symName: __ZNSt3__19allocatorINS_12basic_stringIcNS_11char_traitsIcEENS0_IcEEEEE10deallocateB7v160006EPS5_m, symObjAddr: 0x5084, symBinAddr: 0x10000904C, symSize: 0x74 }
  - { offsetInCU: 0xE293, offset: 0xE293, size: 0x8, addend: 0x0, symName: __ZNSt3__128__exception_guard_exceptionsINS_29_AllocatorDestroyRangeReverseINS_9allocatorINS_6vectorINS_12basic_stringIcNS_11char_traitsIcEENS2_IcEEEENS2_IS8_EEEEEEPSA_EEED2B7v160006Ev, symObjAddr: 0x5174, symBinAddr: 0x10000913C, symSize: 0x48 }
  - { offsetInCU: 0xE2BC, offset: 0xE2BC, size: 0x8, addend: 0x0, symName: __ZNKSt3__129_AllocatorDestroyRangeReverseINS_9allocatorINS_6vectorINS_12basic_stringIcNS_11char_traitsIcEENS1_IcEEEENS1_IS7_EEEEEEPS9_EclB7v160006Ev, symObjAddr: 0x51BC, symBinAddr: 0x100009184, symSize: 0x68 }
  - { offsetInCU: 0xE2E1, offset: 0xE2E1, size: 0x8, addend: 0x0, symName: __ZNSt3__116reverse_iteratorIPNS_6vectorINS_12basic_stringIcNS_11char_traitsIcEENS_9allocatorIcEEEENS5_IS7_EEEEEC1B7v160006ESA_, symObjAddr: 0x5294, symBinAddr: 0x10000925C, symSize: 0x34 }
  - { offsetInCU: 0xE318, offset: 0xE318, size: 0x8, addend: 0x0, symName: __ZNSt3__116allocator_traitsINS_9allocatorINS_6vectorINS_12basic_stringIcNS_11char_traitsIcEENS1_IcEEEENS1_IS7_EEEEEEE7destroyB7v160006IS9_vEEvRSA_PT_, symObjAddr: 0x5310, symBinAddr: 0x1000092D8, symSize: 0x2C }
  - { offsetInCU: 0xE355, offset: 0xE355, size: 0x8, addend: 0x0, symName: __ZNSt3__116reverse_iteratorIPNS_6vectorINS_12basic_stringIcNS_11char_traitsIcEENS_9allocatorIcEEEENS5_IS7_EEEEEppB7v160006Ev, symObjAddr: 0x5360, symBinAddr: 0x100009328, symSize: 0x20 }
  - { offsetInCU: 0xE37A, offset: 0xE37A, size: 0x8, addend: 0x0, symName: __ZNKSt3__116reverse_iteratorIPNS_6vectorINS_12basic_stringIcNS_11char_traitsIcEENS_9allocatorIcEEEENS5_IS7_EEEEE4baseB7v160006Ev, symObjAddr: 0x5380, symBinAddr: 0x100009348, symSize: 0x18 }
  - { offsetInCU: 0xE39F, offset: 0xE39F, size: 0x8, addend: 0x0, symName: __ZNSt3__19allocatorINS_6vectorINS_12basic_stringIcNS_11char_traitsIcEENS0_IcEEEENS0_IS6_EEEEE7destroyB7v160006EPS8_, symObjAddr: 0x5398, symBinAddr: 0x100009360, symSize: 0x28 }
  - { offsetInCU: 0xE3D7, offset: 0xE3D7, size: 0x8, addend: 0x0, symName: __ZNSt3__119__to_address_helperINS_16reverse_iteratorIPNS_6vectorINS_12basic_stringIcNS_11char_traitsIcEENS_9allocatorIcEEEENS6_IS8_EEEEEEvE6__callB7v160006ERKSC_, symObjAddr: 0x53C0, symBinAddr: 0x100009388, symSize: 0x4C }
  - { offsetInCU: 0xE3FA, offset: 0xE3FA, size: 0x8, addend: 0x0, symName: __ZNKSt3__116reverse_iteratorIPNS_6vectorINS_12basic_stringIcNS_11char_traitsIcEENS_9allocatorIcEEEENS5_IS7_EEEEEptB7v160006Ev, symObjAddr: 0x540C, symBinAddr: 0x1000093D4, symSize: 0x24 }
  - { offsetInCU: 0xE41F, offset: 0xE41F, size: 0x8, addend: 0x0, symName: __ZNKSt3__116reverse_iteratorIPNS_6vectorINS_12basic_stringIcNS_11char_traitsIcEENS_9allocatorIcEEEENS5_IS7_EEEEEdeB7v160006Ev, symObjAddr: 0x5430, symBinAddr: 0x1000093F8, symSize: 0x28 }
  - { offsetInCU: 0xE452, offset: 0xE452, size: 0x8, addend: 0x0, symName: __ZNSt3__116reverse_iteratorIPNS_6vectorINS_12basic_stringIcNS_11char_traitsIcEENS_9allocatorIcEEEENS5_IS7_EEEEEC2B7v160006ESA_, symObjAddr: 0x5458, symBinAddr: 0x100009420, symSize: 0x28 }
  - { offsetInCU: 0xE489, offset: 0xE489, size: 0x8, addend: 0x0, symName: __ZNSt3__16vectorINS0_INS_12basic_stringIcNS_11char_traitsIcEENS_9allocatorIcEEEENS4_IS6_EEEENS4_IS8_EEE21_ConstructTransactionD2B7v160006Ev, symObjAddr: 0x5480, symBinAddr: 0x100009448, symSize: 0x20 }
  - { offsetInCU: 0xE4B2, offset: 0xE4B2, size: 0x8, addend: 0x0, symName: __ZNSt3__128__exception_guard_exceptionsINS_6vectorINS1_INS_12basic_stringIcNS_11char_traitsIcEENS_9allocatorIcEEEENS5_IS7_EEEENS5_IS9_EEE16__destroy_vectorEED2B7v160006Ev, symObjAddr: 0x54A0, symBinAddr: 0x100009468, symSize: 0x48 }
  - { offsetInCU: 0xE4DB, offset: 0xE4DB, size: 0x8, addend: 0x0, symName: __ZNSt3__16vectorINS0_INS_12basic_stringIcNS_11char_traitsIcEENS_9allocatorIcEEEENS4_IS6_EEEENS4_IS8_EEE16__destroy_vectorclB7v160006Ev, symObjAddr: 0x54E8, symBinAddr: 0x1000094B0, symSize: 0x9C }
  - { offsetInCU: 0xE500, offset: 0xE500, size: 0x8, addend: 0x0, symName: __ZNKSt3__16vectorINS0_INS_12basic_stringIcNS_11char_traitsIcEENS_9allocatorIcEEEENS4_IS6_EEEENS4_IS8_EEE17__annotate_deleteB7v160006Ev, symObjAddr: 0x5584, symBinAddr: 0x10000954C, symSize: 0xD4 }
  - { offsetInCU: 0xE525, offset: 0xE525, size: 0x8, addend: 0x0, symName: __ZNSt3__16vectorINS0_INS_12basic_stringIcNS_11char_traitsIcEENS_9allocatorIcEEEENS4_IS6_EEEENS4_IS8_EEE7__clearB7v160006Ev, symObjAddr: 0x5668, symBinAddr: 0x100009630, symSize: 0x28 }
  - { offsetInCU: 0xE54A, offset: 0xE54A, size: 0x8, addend: 0x0, symName: __ZNSt3__116allocator_traitsINS_9allocatorINS_6vectorINS_12basic_stringIcNS_11char_traitsIcEENS1_IcEEEENS1_IS7_EEEEEEE10deallocateB7v160006ERSA_PS9_m, symObjAddr: 0x5690, symBinAddr: 0x100009658, symSize: 0x34 }
  - { offsetInCU: 0xE58C, offset: 0xE58C, size: 0x8, addend: 0x0, symName: __ZNSt3__16vectorINS0_INS_12basic_stringIcNS_11char_traitsIcEENS_9allocatorIcEEEENS4_IS6_EEEENS4_IS8_EEE22__base_destruct_at_endB7v160006EPS8_, symObjAddr: 0x56C4, symBinAddr: 0x10000968C, symSize: 0xA0 }
  - { offsetInCU: 0xE5CF, offset: 0xE5CF, size: 0x8, addend: 0x0, symName: __ZNSt3__19allocatorINS_6vectorINS_12basic_stringIcNS_11char_traitsIcEENS0_IcEEEENS0_IS6_EEEEE10deallocateB7v160006EPS8_m, symObjAddr: 0x5764, symBinAddr: 0x10000972C, symSize: 0x74 }
  - { offsetInCU: 0xE610, offset: 0xE610, size: 0x8, addend: 0x0, symName: __ZNSt3__16vectorINS0_INS_12basic_stringIcNS_11char_traitsIcEENS_9allocatorIcEEEENS4_IS6_EEEENS4_IS8_EEED2B7v160006Ev, symObjAddr: 0x57D8, symBinAddr: 0x1000097A0, symSize: 0x3C }
  - { offsetInCU: 0xE639, offset: 0xE639, size: 0x8, addend: 0x0, symName: __ZNSt3__16vectorINS0_INS_12basic_stringIcNS_11char_traitsIcEENS_9allocatorIcEEEENS4_IS6_EEEENS4_IS8_EEEC2B7v160006Ev, symObjAddr: 0x5814, symBinAddr: 0x1000097DC, symSize: 0x4C }
  - { offsetInCU: 0xE662, offset: 0xE662, size: 0x8, addend: 0x0, symName: __ZNSt3__117__compressed_pairIPNS_6vectorINS_12basic_stringIcNS_11char_traitsIcEENS_9allocatorIcEEEENS5_IS7_EEEENS5_IS9_EEEC1B7v160006IDnNS_18__default_init_tagEEEOT_OT0_, symObjAddr: 0x5860, symBinAddr: 0x100009828, symSize: 0x3C }
  - { offsetInCU: 0xE6B9, offset: 0xE6B9, size: 0x8, addend: 0x0, symName: __ZNSt3__117__compressed_pairIPNS_6vectorINS_12basic_stringIcNS_11char_traitsIcEENS_9allocatorIcEEEENS5_IS7_EEEENS5_IS9_EEEC2B7v160006IDnNS_18__default_init_tagEEEOT_OT0_, symObjAddr: 0x589C, symBinAddr: 0x100009864, symSize: 0x40 }
  - { offsetInCU: 0xE710, offset: 0xE710, size: 0x8, addend: 0x0, symName: __ZNSt3__122__compressed_pair_elemINS_9allocatorINS_6vectorINS_12basic_stringIcNS_11char_traitsIcEENS1_IcEEEENS1_IS7_EEEEEELi1ELb1EEC2B7v160006ENS_18__default_init_tagE, symObjAddr: 0x58DC, symBinAddr: 0x1000098A4, symSize: 0x2C }
  - { offsetInCU: 0xE744, offset: 0xE744, size: 0x8, addend: 0x0, symName: __ZNSt3__19allocatorINS_6vectorINS_12basic_stringIcNS_11char_traitsIcEENS0_IcEEEENS0_IS6_EEEEEC2B7v160006Ev, symObjAddr: 0x5908, symBinAddr: 0x1000098D0, symSize: 0x2C }
  - { offsetInCU: 0xE76D, offset: 0xE76D, size: 0x8, addend: 0x0, symName: __ZNSt3__116__non_trivial_ifILb1ENS_9allocatorINS_6vectorINS_12basic_stringIcNS_11char_traitsIcEENS1_IcEEEENS1_IS7_EEEEEEEC2B7v160006Ev, symObjAddr: 0x5934, symBinAddr: 0x1000098FC, symSize: 0x14 }
  - { offsetInCU: 0xE796, offset: 0xE796, size: 0x8, addend: 0x0, symName: __ZNSt3__16vectorINS_12basic_stringIcNS_11char_traitsIcEENS_9allocatorIcEEEENS4_IS6_EEEC2Em, symObjAddr: 0x5948, symBinAddr: 0x100009910, symSize: 0xE4 }
  - { offsetInCU: 0xE7E5, offset: 0xE7E5, size: 0x8, addend: 0x0, symName: __ZNSt3__117__compressed_pairIPNS_12basic_stringIcNS_11char_traitsIcEENS_9allocatorIcEEEENS4_IS6_EEEC1B7v160006IDnNS_18__default_init_tagEEEOT_OT0_, symObjAddr: 0x5A2C, symBinAddr: 0x1000099F4, symSize: 0x3C }
  - { offsetInCU: 0xE83B, offset: 0xE83B, size: 0x8, addend: 0x0, symName: __ZNSt3__16vectorINS_12basic_stringIcNS_11char_traitsIcEENS_9allocatorIcEEEENS4_IS6_EEE18__construct_at_endEm, symObjAddr: 0x5A68, symBinAddr: 0x100009A30, symSize: 0xD0 }
  - { offsetInCU: 0xE8AD, offset: 0xE8AD, size: 0x8, addend: 0x0, symName: __ZNSt3__117__compressed_pairIPNS_12basic_stringIcNS_11char_traitsIcEENS_9allocatorIcEEEENS4_IS6_EEEC2B7v160006IDnNS_18__default_init_tagEEEOT_OT0_, symObjAddr: 0x5B38, symBinAddr: 0x100009B00, symSize: 0x40 }
  - { offsetInCU: 0xE904, offset: 0xE904, size: 0x8, addend: 0x0, symName: __ZNSt3__122__compressed_pair_elemINS_9allocatorINS_12basic_stringIcNS_11char_traitsIcEENS1_IcEEEEEELi1ELb1EEC2B7v160006ENS_18__default_init_tagE, symObjAddr: 0x5B78, symBinAddr: 0x100009B40, symSize: 0x2C }
  - { offsetInCU: 0xE938, offset: 0xE938, size: 0x8, addend: 0x0, symName: __ZNSt3__19allocatorINS_12basic_stringIcNS_11char_traitsIcEENS0_IcEEEEEC2B7v160006Ev, symObjAddr: 0x5BA4, symBinAddr: 0x100009B6C, symSize: 0x2C }
  - { offsetInCU: 0xE961, offset: 0xE961, size: 0x8, addend: 0x0, symName: __ZNSt3__116__non_trivial_ifILb1ENS_9allocatorINS_12basic_stringIcNS_11char_traitsIcEENS1_IcEEEEEEEC2B7v160006Ev, symObjAddr: 0x5BD0, symBinAddr: 0x100009B98, symSize: 0x14 }
  - { offsetInCU: 0xE98A, offset: 0xE98A, size: 0x8, addend: 0x0, symName: __ZNSt3__116allocator_traitsINS_9allocatorINS_12basic_stringIcNS_11char_traitsIcEENS1_IcEEEEEEE9constructB7v160006IS6_JEvEEvRS7_PT_DpOT0_, symObjAddr: 0x5BE4, symBinAddr: 0x100009BAC, symSize: 0x2C }
  - { offsetInCU: 0xE9CC, offset: 0xE9CC, size: 0x8, addend: 0x0, symName: __ZNSt3__19allocatorINS_12basic_stringIcNS_11char_traitsIcEENS0_IcEEEEE9constructB7v160006IS5_JEEEvPT_DpOT0_, symObjAddr: 0x5C10, symBinAddr: 0x100009BD8, symSize: 0x28 }
  - { offsetInCU: 0xEA0D, offset: 0xEA0D, size: 0x8, addend: 0x0, symName: __ZNSt3__112basic_stringIcNS_11char_traitsIcEENS_9allocatorIcEEEC1B7v160006Ev, symObjAddr: 0x5C38, symBinAddr: 0x100009C00, symSize: 0x2C }
  - { offsetInCU: 0xEA36, offset: 0xEA36, size: 0x8, addend: 0x0, symName: __ZNSt3__112basic_stringIcNS_11char_traitsIcEENS_9allocatorIcEEEC2B7v160006Ev, symObjAddr: 0x5C64, symBinAddr: 0x100009C2C, symSize: 0x44 }
  - { offsetInCU: 0xEA5F, offset: 0xEA5F, size: 0x8, addend: 0x0, symName: __ZNSt3__112basic_stringIcNS_11char_traitsIcEENS_9allocatorIcEEE14__default_initB7v160006Ev, symObjAddr: 0x5CA8, symBinAddr: 0x100009C70, symSize: 0xB0 }
  - { offsetInCU: 0xEAB1, offset: 0xEAB1, size: 0x8, addend: 0x0, symName: __ZNSt3__117__compressed_pairINS_12basic_stringIcNS_11char_traitsIcEENS_9allocatorIcEEE5__repES5_E5firstB7v160006Ev, symObjAddr: 0x5D58, symBinAddr: 0x100009D20, symSize: 0x24 }
  - { offsetInCU: 0xEAD6, offset: 0xEAD6, size: 0x8, addend: 0x0, symName: __ZNSt3__112basic_stringIcNS_11char_traitsIcEENS_9allocatorIcEEE11__recommendB7v160006Em, symObjAddr: 0x5D7C, symBinAddr: 0x100009D44, symSize: 0x9C }
  - { offsetInCU: 0xEB09, offset: 0xEB09, size: 0x8, addend: 0x0, symName: __ZNSt3__116allocator_traitsINS_9allocatorIcEEE8allocateB7v160006ERS2_m, symObjAddr: 0x5E18, symBinAddr: 0x100009DE0, symSize: 0x2C }
  - { offsetInCU: 0xEB3C, offset: 0xEB3C, size: 0x8, addend: 0x0, symName: __ZNSt3__112basic_stringIcNS_11char_traitsIcEENS_9allocatorIcEEE7__allocB7v160006Ev, symObjAddr: 0x5E44, symBinAddr: 0x100009E0C, symSize: 0x24 }
  - { offsetInCU: 0xEB61, offset: 0xEB61, size: 0x8, addend: 0x0, symName: __ZNSt3__112basic_stringIcNS_11char_traitsIcEENS_9allocatorIcEEE16__begin_lifetimeB7v160006EPcm, symObjAddr: 0x5E68, symBinAddr: 0x100009E30, symSize: 0x14 }
  - { offsetInCU: 0xEB94, offset: 0xEB94, size: 0x8, addend: 0x0, symName: __ZNSt3__112basic_stringIcNS_11char_traitsIcEENS_9allocatorIcEEE18__set_long_pointerB7v160006EPc, symObjAddr: 0x5E7C, symBinAddr: 0x100009E44, symSize: 0x38 }
  - { offsetInCU: 0xEBC8, offset: 0xEBC8, size: 0x8, addend: 0x0, symName: __ZNSt3__112basic_stringIcNS_11char_traitsIcEENS_9allocatorIcEEE14__set_long_capB7v160006Em, symObjAddr: 0x5EB4, symBinAddr: 0x100009E7C, symSize: 0x70 }
  - { offsetInCU: 0xEBFC, offset: 0xEBFC, size: 0x8, addend: 0x0, symName: __ZNSt3__112basic_stringIcNS_11char_traitsIcEENS_9allocatorIcEEE15__set_long_sizeB7v160006Em, symObjAddr: 0x5F24, symBinAddr: 0x100009EEC, symSize: 0x38 }
  - { offsetInCU: 0xEC30, offset: 0xEC30, size: 0x8, addend: 0x0, symName: __ZNSt3__122__compressed_pair_elemINS_12basic_stringIcNS_11char_traitsIcEENS_9allocatorIcEEE5__repELi0ELb0EE5__getB7v160006Ev, symObjAddr: 0x5F5C, symBinAddr: 0x100009F24, symSize: 0x14 }
  - { offsetInCU: 0xEC55, offset: 0xEC55, size: 0x8, addend: 0x0, symName: __ZNSt3__112basic_stringIcNS_11char_traitsIcEENS_9allocatorIcEEE10__align_itB7v160006ILm16EEEmm, symObjAddr: 0x5F70, symBinAddr: 0x100009F38, symSize: 0x1C }
  - { offsetInCU: 0xEC83, offset: 0xEC83, size: 0x8, addend: 0x0, symName: __ZNSt3__19allocatorIcE8allocateB7v160006Em, symObjAddr: 0x5F8C, symBinAddr: 0x100009F54, symSize: 0x84 }
  - { offsetInCU: 0xECC0, offset: 0xECC0, size: 0x8, addend: 0x0, symName: __ZNSt3__116allocator_traitsINS_9allocatorIcEEE8max_sizeB7v160006IS2_vEEmRKS2_, symObjAddr: 0x6010, symBinAddr: 0x100009FD8, symSize: 0x24 }
  - { offsetInCU: 0xECEE, offset: 0xECEE, size: 0x8, addend: 0x0, symName: __ZNKSt3__19allocatorIcE8max_sizeB7v160006Ev, symObjAddr: 0x6034, symBinAddr: 0x100009FFC, symSize: 0x14 }
  - { offsetInCU: 0xED13, offset: 0xED13, size: 0x8, addend: 0x0, symName: __ZNSt3__117__compressed_pairINS_12basic_stringIcNS_11char_traitsIcEENS_9allocatorIcEEE5__repES5_E6secondB7v160006Ev, symObjAddr: 0x6048, symBinAddr: 0x10000A010, symSize: 0x24 }
  - { offsetInCU: 0xED38, offset: 0xED38, size: 0x8, addend: 0x0, symName: __ZNSt3__122__compressed_pair_elemINS_9allocatorIcEELi1ELb1EE5__getB7v160006Ev, symObjAddr: 0x606C, symBinAddr: 0x10000A034, symSize: 0x14 }
  - { offsetInCU: 0xED5D, offset: 0xED5D, size: 0x8, addend: 0x0, symName: __ZNSt3__16vectorINS_12basic_stringIcNS_11char_traitsIcEENS_9allocatorIcEEEENS4_IS6_EEED2B7v160006Ev, symObjAddr: 0x6080, symBinAddr: 0x10000A048, symSize: 0x3C }
  - { offsetInCU: 0xED85, offset: 0xED85, size: 0x8, addend: 0x0, symName: __ZNSt3__16vectorINS0_INS_12basic_stringIcNS_11char_traitsIcEENS_9allocatorIcEEEENS4_IS6_EEEENS4_IS8_EEE8__appendEmRKS8_, symObjAddr: 0x60BC, symBinAddr: 0x10000A084, symSize: 0x11C }
  - { offsetInCU: 0xEDEE, offset: 0xEDEE, size: 0x8, addend: 0x0, symName: __ZNSt3__16vectorINS0_INS_12basic_stringIcNS_11char_traitsIcEENS_9allocatorIcEEEENS4_IS6_EEEENS4_IS8_EEE17__destruct_at_endB7v160006EPS8_, symObjAddr: 0x61D8, symBinAddr: 0x10000A1A0, symSize: 0x88 }
  - { offsetInCU: 0xEE30, offset: 0xEE30, size: 0x8, addend: 0x0, symName: __ZNSt3__16vectorINS0_INS_12basic_stringIcNS_11char_traitsIcEENS_9allocatorIcEEEENS4_IS6_EEEENS4_IS8_EEE18__construct_at_endEmRKS8_, symObjAddr: 0x6260, symBinAddr: 0x10000A228, symSize: 0xD8 }
  - { offsetInCU: 0xEEB0, offset: 0xEEB0, size: 0x8, addend: 0x0, symName: __ZNKSt3__16vectorINS0_INS_12basic_stringIcNS_11char_traitsIcEENS_9allocatorIcEEEENS4_IS6_EEEENS4_IS8_EEE11__recommendB7v160006Em, symObjAddr: 0x6338, symBinAddr: 0x10000A300, symSize: 0xB4 }
  - { offsetInCU: 0xEF04, offset: 0xEF04, size: 0x8, addend: 0x0, symName: __ZNSt3__114__split_bufferINS_6vectorINS_12basic_stringIcNS_11char_traitsIcEENS_9allocatorIcEEEENS5_IS7_EEEERNS5_IS9_EEEC1EmmSB_, symObjAddr: 0x63EC, symBinAddr: 0x10000A3B4, symSize: 0x44 }
  - { offsetInCU: 0xEF59, offset: 0xEF59, size: 0x8, addend: 0x0, symName: __ZNSt3__114__split_bufferINS_6vectorINS_12basic_stringIcNS_11char_traitsIcEENS_9allocatorIcEEEENS5_IS7_EEEERNS5_IS9_EEE18__construct_at_endEmRKS9_, symObjAddr: 0x6430, symBinAddr: 0x10000A3F8, symSize: 0xC4 }
  - { offsetInCU: 0xEFA9, offset: 0xEFA9, size: 0x8, addend: 0x0, symName: __ZNSt3__114__split_bufferINS_6vectorINS_12basic_stringIcNS_11char_traitsIcEENS_9allocatorIcEEEENS5_IS7_EEEERNS5_IS9_EEED1Ev, symObjAddr: 0x660C, symBinAddr: 0x10000A5D4, symSize: 0x2C }
  - { offsetInCU: 0xEFD4, offset: 0xEFD4, size: 0x8, addend: 0x0, symName: __ZNSt3__116allocator_traitsINS_9allocatorINS_6vectorINS_12basic_stringIcNS_11char_traitsIcEENS1_IcEEEENS1_IS7_EEEEEEE9constructB7v160006IS9_JRKS9_EvEEvRSA_PT_DpOT0_, symObjAddr: 0x6638, symBinAddr: 0x10000A600, symSize: 0x34 }
  - { offsetInCU: 0xF02B, offset: 0xF02B, size: 0x8, addend: 0x0, symName: __ZNSt3__19allocatorINS_6vectorINS_12basic_stringIcNS_11char_traitsIcEENS0_IcEEEENS0_IS6_EEEEE9constructB7v160006IS8_JRKS8_EEEvPT_DpOT0_, symObjAddr: 0x666C, symBinAddr: 0x10000A634, symSize: 0x30 }
  - { offsetInCU: 0xF080, offset: 0xF080, size: 0x8, addend: 0x0, symName: __ZNSt3__114__split_bufferINS_6vectorINS_12basic_stringIcNS_11char_traitsIcEENS_9allocatorIcEEEENS5_IS7_EEEERNS5_IS9_EEEC2EmmSB_, symObjAddr: 0x671C, symBinAddr: 0x10000A6E4, symSize: 0xE0 }
  - { offsetInCU: 0xF0F3, offset: 0xF0F3, size: 0x8, addend: 0x0, symName: __ZNSt3__117__compressed_pairIPNS_6vectorINS_12basic_stringIcNS_11char_traitsIcEENS_9allocatorIcEEEENS5_IS7_EEEERNS5_IS9_EEEC1B7v160006IDnSC_EEOT_OT0_, symObjAddr: 0x67FC, symBinAddr: 0x10000A7C4, symSize: 0x3C }
  - { offsetInCU: 0xF14A, offset: 0xF14A, size: 0x8, addend: 0x0, symName: __ZNSt3__114__split_bufferINS_6vectorINS_12basic_stringIcNS_11char_traitsIcEENS_9allocatorIcEEEENS5_IS7_EEEERNS5_IS9_EEE7__allocB7v160006Ev, symObjAddr: 0x6838, symBinAddr: 0x10000A800, symSize: 0x28 }
  - { offsetInCU: 0xF16F, offset: 0xF16F, size: 0x8, addend: 0x0, symName: __ZNSt3__114__split_bufferINS_6vectorINS_12basic_stringIcNS_11char_traitsIcEENS_9allocatorIcEEEENS5_IS7_EEEERNS5_IS9_EEE9__end_capB7v160006Ev, symObjAddr: 0x6860, symBinAddr: 0x10000A828, symSize: 0x28 }
  - { offsetInCU: 0xF194, offset: 0xF194, size: 0x8, addend: 0x0, symName: __ZNSt3__117__compressed_pairIPNS_6vectorINS_12basic_stringIcNS_11char_traitsIcEENS_9allocatorIcEEEENS5_IS7_EEEERNS5_IS9_EEEC2B7v160006IDnSC_EEOT_OT0_, symObjAddr: 0x6888, symBinAddr: 0x10000A850, symSize: 0x48 }
  - { offsetInCU: 0xF1EB, offset: 0xF1EB, size: 0x8, addend: 0x0, symName: __ZNSt3__122__compressed_pair_elemIRNS_9allocatorINS_6vectorINS_12basic_stringIcNS_11char_traitsIcEENS1_IcEEEENS1_IS7_EEEEEELi1ELb0EEC2B7v160006ISB_vEEOT_, symObjAddr: 0x68D0, symBinAddr: 0x10000A898, symSize: 0x20 }
  - { offsetInCU: 0xF22C, offset: 0xF22C, size: 0x8, addend: 0x0, symName: __ZNSt3__117__compressed_pairIPNS_6vectorINS_12basic_stringIcNS_11char_traitsIcEENS_9allocatorIcEEEENS5_IS7_EEEERNS5_IS9_EEE6secondB7v160006Ev, symObjAddr: 0x68F0, symBinAddr: 0x10000A8B8, symSize: 0x28 }
  - { offsetInCU: 0xF251, offset: 0xF251, size: 0x8, addend: 0x0, symName: __ZNSt3__122__compressed_pair_elemIRNS_9allocatorINS_6vectorINS_12basic_stringIcNS_11char_traitsIcEENS1_IcEEEENS1_IS7_EEEEEELi1ELb0EE5__getB7v160006Ev, symObjAddr: 0x6918, symBinAddr: 0x10000A8E0, symSize: 0x18 }
  - { offsetInCU: 0xF276, offset: 0xF276, size: 0x8, addend: 0x0, symName: __ZNSt3__117__compressed_pairIPNS_6vectorINS_12basic_stringIcNS_11char_traitsIcEENS_9allocatorIcEEEENS5_IS7_EEEERNS5_IS9_EEE5firstB7v160006Ev, symObjAddr: 0x6930, symBinAddr: 0x10000A8F8, symSize: 0x24 }
  - { offsetInCU: 0xF2A5, offset: 0xF2A5, size: 0x8, addend: 0x0, symName: __ZNSt3__114__split_bufferINS_6vectorINS_12basic_stringIcNS_11char_traitsIcEENS_9allocatorIcEEEENS5_IS7_EEEERNS5_IS9_EEE21_ConstructTransactionC1B7v160006EPPS9_m, symObjAddr: 0x6954, symBinAddr: 0x10000A91C, symSize: 0x3C }
  - { offsetInCU: 0xF2EA, offset: 0xF2EA, size: 0x8, addend: 0x0, symName: __ZNSt3__114__split_bufferINS_6vectorINS_12basic_stringIcNS_11char_traitsIcEENS_9allocatorIcEEEENS5_IS7_EEEERNS5_IS9_EEE21_ConstructTransactionD1B7v160006Ev, symObjAddr: 0x6990, symBinAddr: 0x10000A958, symSize: 0x2C }
  - { offsetInCU: 0xF313, offset: 0xF313, size: 0x8, addend: 0x0, symName: __ZNSt3__114__split_bufferINS_6vectorINS_12basic_stringIcNS_11char_traitsIcEENS_9allocatorIcEEEENS5_IS7_EEEERNS5_IS9_EEE21_ConstructTransactionC2B7v160006EPPS9_m, symObjAddr: 0x69BC, symBinAddr: 0x10000A984, symSize: 0x4C }
  - { offsetInCU: 0xF358, offset: 0xF358, size: 0x8, addend: 0x0, symName: __ZNSt3__114__split_bufferINS_6vectorINS_12basic_stringIcNS_11char_traitsIcEENS_9allocatorIcEEEENS5_IS7_EEEERNS5_IS9_EEE21_ConstructTransactionD2B7v160006Ev, symObjAddr: 0x6A08, symBinAddr: 0x10000A9D0, symSize: 0x20 }
  - { offsetInCU: 0xF381, offset: 0xF381, size: 0x8, addend: 0x0, symName: __ZNSt3__129_AllocatorDestroyRangeReverseINS_9allocatorINS_6vectorINS_12basic_stringIcNS_11char_traitsIcEENS1_IcEEEENS1_IS7_EEEEEENS_16reverse_iteratorIPS9_EEEC1B7v160006ERSA_RSD_SG_, symObjAddr: 0x6BE4, symBinAddr: 0x10000ABAC, symSize: 0x44 }
  - { offsetInCU: 0xF3D7, offset: 0xF3D7, size: 0x8, addend: 0x0, symName: __ZNSt3__128__exception_guard_exceptionsINS_29_AllocatorDestroyRangeReverseINS_9allocatorINS_6vectorINS_12basic_stringIcNS_11char_traitsIcEENS2_IcEEEENS2_IS8_EEEEEENS_16reverse_iteratorIPSA_EEEEE10__completeB7v160006Ev, symObjAddr: 0x6C28, symBinAddr: 0x10000ABF0, symSize: 0x1C }
  - { offsetInCU: 0xF3FC, offset: 0xF3FC, size: 0x8, addend: 0x0, symName: __ZNSt3__128__exception_guard_exceptionsINS_29_AllocatorDestroyRangeReverseINS_9allocatorINS_6vectorINS_12basic_stringIcNS_11char_traitsIcEENS2_IcEEEENS2_IS8_EEEEEENS_16reverse_iteratorIPSA_EEEEED1B7v160006Ev, symObjAddr: 0x6C44, symBinAddr: 0x10000AC0C, symSize: 0x2C }
  - { offsetInCU: 0xF425, offset: 0xF425, size: 0x8, addend: 0x0, symName: __ZNSt3__128__exception_guard_exceptionsINS_29_AllocatorDestroyRangeReverseINS_9allocatorINS_6vectorINS_12basic_stringIcNS_11char_traitsIcEENS2_IcEEEENS2_IS8_EEEEEENS_16reverse_iteratorIPSA_EEEEEC1B7v160006ESF_, symObjAddr: 0x6C70, symBinAddr: 0x10000AC38, symSize: 0x34 }
  - { offsetInCU: 0xF45D, offset: 0xF45D, size: 0x8, addend: 0x0, symName: __ZNSt3__128__exception_guard_exceptionsINS_29_AllocatorDestroyRangeReverseINS_9allocatorINS_6vectorINS_12basic_stringIcNS_11char_traitsIcEENS2_IcEEEENS2_IS8_EEEEEENS_16reverse_iteratorIPSA_EEEEEC2B7v160006ESF_, symObjAddr: 0x6CA4, symBinAddr: 0x10000AC6C, symSize: 0x30 }
  - { offsetInCU: 0xF495, offset: 0xF495, size: 0x8, addend: 0x0, symName: __ZNSt3__129_AllocatorDestroyRangeReverseINS_9allocatorINS_6vectorINS_12basic_stringIcNS_11char_traitsIcEENS1_IcEEEENS1_IS7_EEEEEENS_16reverse_iteratorIPS9_EEEC2B7v160006ERSA_RSD_SG_, symObjAddr: 0x6CD4, symBinAddr: 0x10000AC9C, symSize: 0x38 }
  - { offsetInCU: 0xF4EB, offset: 0xF4EB, size: 0x8, addend: 0x0, symName: __ZNSt3__128__exception_guard_exceptionsINS_29_AllocatorDestroyRangeReverseINS_9allocatorINS_6vectorINS_12basic_stringIcNS_11char_traitsIcEENS2_IcEEEENS2_IS8_EEEEEENS_16reverse_iteratorIPSA_EEEEED2B7v160006Ev, symObjAddr: 0x6D0C, symBinAddr: 0x10000ACD4, symSize: 0x48 }
  - { offsetInCU: 0xF514, offset: 0xF514, size: 0x8, addend: 0x0, symName: __ZNKSt3__129_AllocatorDestroyRangeReverseINS_9allocatorINS_6vectorINS_12basic_stringIcNS_11char_traitsIcEENS1_IcEEEENS1_IS7_EEEEEENS_16reverse_iteratorIPS9_EEEclB7v160006Ev, symObjAddr: 0x6D54, symBinAddr: 0x10000AD1C, symSize: 0xB4 }
  - { offsetInCU: 0xF53A, offset: 0xF53A, size: 0x8, addend: 0x0, symName: __ZNSt3__116reverse_iteratorINS0_IPNS_6vectorINS_12basic_stringIcNS_11char_traitsIcEENS_9allocatorIcEEEENS5_IS7_EEEEEEEC1B7v160006ESB_, symObjAddr: 0x6E78, symBinAddr: 0x10000AE40, symSize: 0x3C }
  - { offsetInCU: 0xF571, offset: 0xF571, size: 0x8, addend: 0x0, symName: __ZNSt3__116reverse_iteratorINS0_IPNS_6vectorINS_12basic_stringIcNS_11char_traitsIcEENS_9allocatorIcEEEENS5_IS7_EEEEEEEppB7v160006Ev, symObjAddr: 0x6F38, symBinAddr: 0x10000AF00, symSize: 0x30 }
  - { offsetInCU: 0xF596, offset: 0xF596, size: 0x8, addend: 0x0, symName: __ZNKSt3__116reverse_iteratorINS0_IPNS_6vectorINS_12basic_stringIcNS_11char_traitsIcEENS_9allocatorIcEEEENS5_IS7_EEEEEEE4baseB7v160006Ev, symObjAddr: 0x6F68, symBinAddr: 0x10000AF30, symSize: 0x24 }
  - { offsetInCU: 0xF5C0, offset: 0xF5C0, size: 0x8, addend: 0x0, symName: __ZNSt3__119__to_address_helperINS_16reverse_iteratorINS1_IPNS_6vectorINS_12basic_stringIcNS_11char_traitsIcEENS_9allocatorIcEEEENS6_IS8_EEEEEEEEvE6__callB7v160006ERKSD_, symObjAddr: 0x6F8C, symBinAddr: 0x10000AF54, symSize: 0x4C }
  - { offsetInCU: 0xF5E3, offset: 0xF5E3, size: 0x8, addend: 0x0, symName: __ZNKSt3__116reverse_iteratorINS0_IPNS_6vectorINS_12basic_stringIcNS_11char_traitsIcEENS_9allocatorIcEEEENS5_IS7_EEEEEEEptB7v160006Ev, symObjAddr: 0x6FD8, symBinAddr: 0x10000AFA0, symSize: 0x24 }
  - { offsetInCU: 0xF608, offset: 0xF608, size: 0x8, addend: 0x0, symName: __ZNKSt3__116reverse_iteratorINS0_IPNS_6vectorINS_12basic_stringIcNS_11char_traitsIcEENS_9allocatorIcEEEENS5_IS7_EEEEEEEdeB7v160006Ev, symObjAddr: 0x6FFC, symBinAddr: 0x10000AFC4, symSize: 0x34 }
  - { offsetInCU: 0xF63B, offset: 0xF63B, size: 0x8, addend: 0x0, symName: __ZNSt3__116reverse_iteratorIPNS_6vectorINS_12basic_stringIcNS_11char_traitsIcEENS_9allocatorIcEEEENS5_IS7_EEEEEmmB7v160006Ev, symObjAddr: 0x7030, symBinAddr: 0x10000AFF8, symSize: 0x20 }
  - { offsetInCU: 0xF660, offset: 0xF660, size: 0x8, addend: 0x0, symName: __ZNSt3__116reverse_iteratorINS0_IPNS_6vectorINS_12basic_stringIcNS_11char_traitsIcEENS_9allocatorIcEEEENS5_IS7_EEEEEEEC2B7v160006ESB_, symObjAddr: 0x7050, symBinAddr: 0x10000B018, symSize: 0x2C }
  - { offsetInCU: 0xF697, offset: 0xF697, size: 0x8, addend: 0x0, symName: __ZNSt3__114__split_bufferINS_6vectorINS_12basic_stringIcNS_11char_traitsIcEENS_9allocatorIcEEEENS5_IS7_EEEERNS5_IS9_EEED2Ev, symObjAddr: 0x707C, symBinAddr: 0x10000B044, symSize: 0x80 }
  - { offsetInCU: 0xF6C2, offset: 0xF6C2, size: 0x8, addend: 0x0, symName: __ZNSt3__114__split_bufferINS_6vectorINS_12basic_stringIcNS_11char_traitsIcEENS_9allocatorIcEEEENS5_IS7_EEEERNS5_IS9_EEE5clearB7v160006Ev, symObjAddr: 0x70FC, symBinAddr: 0x10000B0C4, symSize: 0x28 }
  - { offsetInCU: 0xF6E7, offset: 0xF6E7, size: 0x8, addend: 0x0, symName: __ZNKSt3__114__split_bufferINS_6vectorINS_12basic_stringIcNS_11char_traitsIcEENS_9allocatorIcEEEENS5_IS7_EEEERNS5_IS9_EEE8capacityB7v160006Ev, symObjAddr: 0x7124, symBinAddr: 0x10000B0EC, symSize: 0x40 }
  - { offsetInCU: 0xF70C, offset: 0xF70C, size: 0x8, addend: 0x0, symName: __ZNSt3__114__split_bufferINS_6vectorINS_12basic_stringIcNS_11char_traitsIcEENS_9allocatorIcEEEENS5_IS7_EEEERNS5_IS9_EEE17__destruct_at_endB7v160006EPS9_, symObjAddr: 0x7164, symBinAddr: 0x10000B12C, symSize: 0x2C }
  - { offsetInCU: 0xF73E, offset: 0xF73E, size: 0x8, addend: 0x0, symName: __ZNSt3__114__split_bufferINS_6vectorINS_12basic_stringIcNS_11char_traitsIcEENS_9allocatorIcEEEENS5_IS7_EEEERNS5_IS9_EEE17__destruct_at_endB7v160006EPS9_NS_17integral_constantIbLb0EEE, symObjAddr: 0x7190, symBinAddr: 0x10000B158, symSize: 0x94 }
  - { offsetInCU: 0xF77E, offset: 0xF77E, size: 0x8, addend: 0x0, symName: __ZNKSt3__114__split_bufferINS_6vectorINS_12basic_stringIcNS_11char_traitsIcEENS_9allocatorIcEEEENS5_IS7_EEEERNS5_IS9_EEE9__end_capB7v160006Ev, symObjAddr: 0x7224, symBinAddr: 0x10000B1EC, symSize: 0x28 }
  - { offsetInCU: 0xF7A3, offset: 0xF7A3, size: 0x8, addend: 0x0, symName: __ZNKSt3__117__compressed_pairIPNS_6vectorINS_12basic_stringIcNS_11char_traitsIcEENS_9allocatorIcEEEENS5_IS7_EEEERNS5_IS9_EEE5firstB7v160006Ev, symObjAddr: 0x724C, symBinAddr: 0x10000B214, symSize: 0x24 }
  - { offsetInCU: 0xF7C8, offset: 0xF7C8, size: 0x8, addend: 0x0, symName: __ZNSt3__16vectorINS0_INS_12basic_stringIcNS_11char_traitsIcEENS_9allocatorIcEEEENS4_IS6_EEEENS4_IS8_EEE27__invalidate_iterators_pastB7v160006EPS8_, symObjAddr: 0x7270, symBinAddr: 0x10000B238, symSize: 0x14 }
  - { offsetInCU: 0xF7FE, offset: 0xF7FE, size: 0x8, addend: 0x0, symName: __ZNKSt3__16vectorINS0_INS_12basic_stringIcNS_11char_traitsIcEENS_9allocatorIcEEEENS4_IS6_EEEENS4_IS8_EEE17__annotate_shrinkB7v160006Em, symObjAddr: 0x7284, symBinAddr: 0x10000B24C, symSize: 0xD0 }
...
